

Microchip MPLAB XC8 Assembler V2.05 build -831301201 
                                                                                               Mon Aug 05 02:19:27 2019

Microchip MPLAB XC8 C Compiler v2.05 (Free license) build 20181220022703 Og1 
     1                           	processor	12F752
     2                           	opt	pw 120
     3                           	opt	flic
     4                           	psect	idataCOMMON,global,class=CODE,delta=2
     5                           	psect	idataBANK0,global,class=CODE,delta=2
     6                           	psect	cinit,global,class=CODE,merge=1,delta=2
     7                           	psect	bssCOMMON,global,class=COMMON,space=1,delta=1
     8                           	psect	dataCOMMON,global,class=COMMON,space=1,delta=1
     9                           	psect	dataBANK0,global,class=BANK0,space=1,delta=1
    10                           	psect	cstackCOMMON,global,class=COMMON,space=1,delta=1
    11                           	psect	cstackBANK0,global,class=BANK0,space=1,delta=1
    12                           	psect	maintext,global,class=CODE,split=1,delta=2
    13                           	psect	text1,local,class=CODE,merge=1,delta=2
    14                           	psect	text2,local,class=CODE,merge=1,delta=2
    15                           	psect	text3,local,class=CODE,merge=1,delta=2
    16                           	psect	text4,local,class=CODE,merge=1,delta=2
    17                           	psect	text5,local,class=CODE,merge=1,delta=2
    18                           	psect	text6,local,class=CODE,merge=1,delta=2,group=1
    19                           	psect	text7,local,class=CODE,merge=1,delta=2
    20                           	psect	text8,local,class=CODE,merge=1,delta=2,group=1
    21                           	psect	text9,local,class=CODE,merge=1,delta=2,group=1
    22                           	psect	text10,local,class=CODE,merge=1,delta=2
    23                           	psect	text11,local,class=CODE,merge=1,delta=2
    24                           	psect	text12,local,class=CODE,merge=1,delta=2
    25                           	psect	text13,local,class=CODE,merge=1,delta=2
    26                           	psect	text14,local,class=CODE,merge=1,delta=2
    27                           	psect	intentry,global,class=CODE,delta=2
    28                           	dabs	1,0x7E,2
    29  0000                     
    30                           ; Version 2.05
    31                           ; Generated 20/12/2018 GMT
    32                           ; 
    33                           ; Copyright © 2018, Microchip Technology Inc. and its subsidiaries ("Microchip")
    34                           ; All rights reserved.
    35                           ; 
    36                           ; This software is developed by Microchip Technology Inc. and its subsidiaries ("Microch
      +                          ip").
    37                           ; 
    38                           ; Redistribution and use in source and binary forms, with or without modification, are
    39                           ; permitted provided that the following conditions are met:
    40                           ; 
    41                           ;     1. Redistributions of source code must retain the above copyright notice, this lis
      +                          t of
    42                           ;        conditions and the following disclaimer.
    43                           ; 
    44                           ;     2. Redistributions in binary form must reproduce the above copyright notice, this 
      +                          list
    45                           ;        of conditions and the following disclaimer in the documentation and/or other
    46                           ;        materials provided with the distribution.
    47                           ; 
    48                           ;     3. Microchip's name may not be used to endorse or promote products derived from th
      +                          is
    49                           ;        software without specific prior written permission.
    50                           ; 
    51                           ; THIS SOFTWARE IS PROVIDED BY MICROCHIP "AS IS" AND ANY EXPRESS OR IMPLIED WARRANTIES,
    52                           ; INCLUDING, BUT NOT LIMITED TO, THE IMPLIED WARRANTIES OF MERCHANTABILITY AND FITNESS F
      +                          OR
    53                           ; PURPOSE ARE DISCLAIMED.  IN NO EVENT SHALL MICROCHIP BE LIABLE FOR ANY DIRECT, INDIREC
      +                          T,
    54                           ; INCIDENTAL, SPECIAL, EXEMPLARY, OR CONSEQUENTIAL DAMAGES (INCLUDING BUT NOT LIMITED TO
    55                           ; PROCUREMENT OF SUBSTITUTE GOODS OR SERVICES; LOSS OF USE, DATA OR PROFITS; OR BUSINESS
    56                           ; INTERRUPTION) HOWSOEVER CAUSED AND ON ANY THEORY OF LIABILITY, WHETHER IN CONTRACT, ST
      +                          RICT
    57                           ; LIABILITY, OR TORT (INCLUDING NEGLIGENCE OR OTHERWISE) ARISING IN ANY WAY OUT OF THE U
      +                          SE OF
    58                           ; THIS SOFTWARE, EVEN IF ADVISED OF THE POSSIBILITY OF SUCH DAMAGE.
    59                           ; 
    60                           ; 
    61                           ; Code-generator required, PIC12F752 Definitions
    62                           ; 
    63                           ; SFR Addresses
    64  0000                     	;# 
    65  0001                     	;# 
    66  0002                     	;# 
    67  0003                     	;# 
    68  0004                     	;# 
    69  0005                     	;# 
    70  0008                     	;# 
    71  000A                     	;# 
    72  000B                     	;# 
    73  000C                     	;# 
    74  000D                     	;# 
    75  000F                     	;# 
    76  000F                     	;# 
    77  0010                     	;# 
    78  0011                     	;# 
    79  0012                     	;# 
    80  0013                     	;# 
    81  0013                     	;# 
    82  0014                     	;# 
    83  0015                     	;# 
    84  001C                     	;# 
    85  001C                     	;# 
    86  001D                     	;# 
    87  001E                     	;# 
    88  001F                     	;# 
    89  0081                     	;# 
    90  0085                     	;# 
    91  0088                     	;# 
    92  008C                     	;# 
    93  008D                     	;# 
    94  008F                     	;# 
    95  0090                     	;# 
    96  0091                     	;# 
    97  0092                     	;# 
    98  009B                     	;# 
    99  009B                     	;# 
   100  009C                     	;# 
   101  009C                     	;# 
   102  009D                     	;# 
   103  009D                     	;# 
   104  009E                     	;# 
   105  009E                     	;# 
   106  009F                     	;# 
   107  009F                     	;# 
   108  0105                     	;# 
   109  0108                     	;# 
   110  010C                     	;# 
   111  010D                     	;# 
   112  010F                     	;# 
   113  0110                     	;# 
   114  0111                     	;# 
   115  0112                     	;# 
   116  0113                     	;# 
   117  0114                     	;# 
   118  0115                     	;# 
   119  0116                     	;# 
   120  0185                     	;# 
   121  0188                     	;# 
   122  0189                     	;# 
   123  018C                     	;# 
   124  018D                     	;# 
   125  018E                     	;# 
   126  018E                     	;# 
   127  018F                     	;# 
   128  0190                     	;# 
   129  0190                     	;# 
   130  0191                     	;# 
   131  0192                     	;# 
   132  0193                     	;# 
   133  0194                     	;# 
   134  0195                     	;# 
   135  0196                     	;# 
   136  0197                     	;# 
   137  0000                     	;# 
   138  0001                     	;# 
   139  0002                     	;# 
   140  0003                     	;# 
   141  0004                     	;# 
   142  0005                     	;# 
   143  0008                     	;# 
   144  000A                     	;# 
   145  000B                     	;# 
   146  000C                     	;# 
   147  000D                     	;# 
   148  000F                     	;# 
   149  000F                     	;# 
   150  0010                     	;# 
   151  0011                     	;# 
   152  0012                     	;# 
   153  0013                     	;# 
   154  0013                     	;# 
   155  0014                     	;# 
   156  0015                     	;# 
   157  001C                     	;# 
   158  001C                     	;# 
   159  001D                     	;# 
   160  001E                     	;# 
   161  001F                     	;# 
   162  0081                     	;# 
   163  0085                     	;# 
   164  0088                     	;# 
   165  008C                     	;# 
   166  008D                     	;# 
   167  008F                     	;# 
   168  0090                     	;# 
   169  0091                     	;# 
   170  0092                     	;# 
   171  009B                     	;# 
   172  009B                     	;# 
   173  009C                     	;# 
   174  009C                     	;# 
   175  009D                     	;# 
   176  009D                     	;# 
   177  009E                     	;# 
   178  009E                     	;# 
   179  009F                     	;# 
   180  009F                     	;# 
   181  0105                     	;# 
   182  0108                     	;# 
   183  010C                     	;# 
   184  010D                     	;# 
   185  010F                     	;# 
   186  0110                     	;# 
   187  0111                     	;# 
   188  0112                     	;# 
   189  0113                     	;# 
   190  0114                     	;# 
   191  0115                     	;# 
   192  0116                     	;# 
   193  0185                     	;# 
   194  0188                     	;# 
   195  0189                     	;# 
   196  018C                     	;# 
   197  018D                     	;# 
   198  018E                     	;# 
   199  018E                     	;# 
   200  018F                     	;# 
   201  0190                     	;# 
   202  0190                     	;# 
   203  0191                     	;# 
   204  0192                     	;# 
   205  0193                     	;# 
   206  0194                     	;# 
   207  0195                     	;# 
   208  0196                     	;# 
   209  0197                     	;# 
   210                           
   211                           	psect	idataCOMMON
   212  0396                     __pidataCOMMON:	
   213                           
   214                           ;initializer for _duration_divisor
   215  0396  3406               	retlw	6
   216                           
   217                           	psect	idataBANK0
   218  0397                     __pidataBANK0:	
   219                           
   220                           ;initializer for _freq_multiplier
   221  0397  3406               	retlw	6
   222  000C                     _PIR1bits	set	12
   223  000F                     _TMR1L	set	15
   224  0010                     _TMR1H	set	16
   225  000B                     _INTCONbits	set	11
   226  0011                     _T1CONbits	set	17
   227  008C                     _PIE1bits	set	140
   228  0085                     _TRISAbits	set	133
   229  0085                     _TRISA	set	133
   230  008F                     _OSCCONbits	set	143
   231  0111                     _PR2	set	273
   232  0112                     _T2CONbits	set	274
   233  0105                     _LATAbits	set	261
   234  0105                     _LATA	set	261
   235  0185                     _ANSELAbits	set	389
   236  0185                     _ANSELA	set	389
   237                           
   238                           ; #config settings
   239  0000                     
   240                           	psect	cinit
   241  000B                     start_initialization:	
   242  000B                     __initialization:	
   243                           
   244                           ; Initialize objects allocated to BANK0
   245  000B  2397               	fcall	__pidataBANK0	;fetch initializer
   246  000C  00D2               	movwf	__pdataBANK0& (0+127)
   247                           
   248                           ; Initialize objects allocated to COMMON
   249  000D  2396               	fcall	__pidataCOMMON	;fetch initializer
   250  000E  00FB               	movwf	__pdataCOMMON& (0+127)
   251                           
   252                           ; Clear objects allocated to COMMON
   253  000F  01FA               	clrf	__pbssCOMMON& (0+127)
   254  0010                     end_of_initialization:	
   255                           ;End of C runtime variable initialization code
   256                           
   257  0010                     __end_of__initialization:	
   258  0010  0183               	clrf	3
   259  0011  2B93               	ljmp	_main	;jump to C main() function
   260                           
   261                           	psect	bssCOMMON
   262  007A                     __pbssCOMMON:	
   263  007A                     _playing_note:	
   264  007A                     	ds	1
   265                           
   266                           	psect	dataCOMMON
   267  007B                     __pdataCOMMON:	
   268  007B                     _duration_divisor:	
   269  007B                     	ds	1
   270                           
   271                           	psect	dataBANK0
   272  0052                     __pdataBANK0:	
   273  0052                     _freq_multiplier:	
   274  0052                     	ds	1
   275                           
   276                           	psect	cstackCOMMON
   277  0070                     __pcstackCOMMON:	
   278  0070                     ?_init_beeper:	
   279  0070                     ?_beeper_set_freq_multiplier:	
   280                           ; 1 bytes @ 0x0
   281                           
   282  0070                     ?_beeper_set_duration_divisor:	
   283                           ; 1 bytes @ 0x0
   284                           
   285  0070                     ?_beeper_on:	
   286                           ; 1 bytes @ 0x0
   287                           
   288  0070                     ?_beeper_off:	
   289                           ; 1 bytes @ 0x0
   290                           
   291  0070                     ?_init:	
   292                           ; 1 bytes @ 0x0
   293                           
   294  0070                     ?_loop:	
   295                           ; 1 bytes @ 0x0
   296                           
   297  0070                     ?_main:	
   298                           ; 1 bytes @ 0x0
   299                           
   300  0070                     ?_ISR:	
   301                           ; 1 bytes @ 0x0
   302                           
   303  0070                     ??_ISR:	
   304                           ; 1 bytes @ 0x0
   305                           
   306                           
   307                           ; 1 bytes @ 0x0
   308  0070                     	ds	2
   309  0072                     ??_init_beeper:	
   310  0072                     ??_beeper_set_freq_multiplier:	
   311                           ; 1 bytes @ 0x2
   312                           
   313  0072                     ??_beeper_set_duration_divisor:	
   314                           ; 1 bytes @ 0x2
   315                           
   316  0072                     ??_beeper_on:	
   317                           ; 1 bytes @ 0x2
   318                           
   319  0072                     ??_beeper_off:	
   320                           ; 1 bytes @ 0x2
   321                           
   322  0072                     ?___wmul:	
   323                           ; 1 bytes @ 0x2
   324                           
   325  0072                     ?___lwdiv:	
   326                           ; 2 bytes @ 0x2
   327                           
   328  0072                     ?___lldiv:	
   329                           ; 2 bytes @ 0x2
   330                           
   331  0072                     ___wmul@multiplier:	
   332                           ; 4 bytes @ 0x2
   333                           
   334  0072                     ___lwdiv@divisor:	
   335                           ; 2 bytes @ 0x2
   336                           
   337  0072                     ___lldiv@divisor:	
   338                           ; 2 bytes @ 0x2
   339                           
   340                           
   341                           ; 4 bytes @ 0x2
   342  0072                     	ds	1
   343  0073                     ??_init:	
   344  0073                     beeper_set_freq_multiplier@freq_multiplier_in:	
   345                           ; 1 bytes @ 0x3
   346                           
   347  0073                     beeper_set_duration_divisor@duration_divisor_in:	
   348                           ; 1 bytes @ 0x3
   349                           
   350                           
   351                           ; 1 bytes @ 0x3
   352  0073                     	ds	1
   353  0074                     ___wmul@multiplicand:	
   354  0074                     ___lwdiv@dividend:	
   355                           ; 2 bytes @ 0x4
   356                           
   357                           
   358                           ; 2 bytes @ 0x4
   359  0074                     	ds	2
   360  0076                     ??___wmul:	
   361  0076                     ??___lwdiv:	
   362                           ; 1 bytes @ 0x6
   363                           
   364  0076                     ___wmul@product:	
   365                           ; 1 bytes @ 0x6
   366                           
   367  0076                     ___lldiv@dividend:	
   368                           ; 2 bytes @ 0x6
   369                           
   370                           
   371                           ; 4 bytes @ 0x6
   372  0076                     	ds	1
   373  0077                     ___lwdiv@quotient:	
   374                           
   375                           ; 2 bytes @ 0x7
   376  0077                     	ds	2
   377  0079                     ___lwdiv@counter:	
   378                           
   379                           ; 1 bytes @ 0x9
   380  0079                     	ds	1
   381  007A                     ??_beeper_play_tone:	
   382  007A                     ??_main:	
   383                           ; 1 bytes @ 0xA
   384                           
   385                           
   386                           	psect	cstackBANK0
   387  0040                     __pcstackBANK0:	
   388                           ; 1 bytes @ 0xA
   389                           
   390  0040                     ?_beeper_wait_duration:	
   391  0040                     ??___lldiv:	
   392                           ; 1 bytes @ 0x0
   393                           
   394  0040                     beeper_wait_duration@duration:	
   395                           ; 1 bytes @ 0x0
   396                           
   397                           
   398                           ; 2 bytes @ 0x0
   399  0040                     	ds	1
   400  0041                     ___lldiv@quotient:	
   401                           
   402                           ; 4 bytes @ 0x1
   403  0041                     	ds	1
   404  0042                     ??_beeper_wait_duration:	
   405                           
   406                           ; 1 bytes @ 0x2
   407  0042                     	ds	2
   408  0044                     beeper_wait_duration@note_dur_clock_ticks:	
   409                           
   410                           ; 2 bytes @ 0x4
   411  0044                     	ds	1
   412  0045                     ___lldiv@counter:	
   413                           
   414                           ; 1 bytes @ 0x5
   415  0045                     	ds	1
   416  0046                     ?_beeper_set_freq_hz:	
   417  0046                     beeper_set_freq_hz@freq:	
   418                           ; 1 bytes @ 0x6
   419                           
   420                           
   421                           ; 2 bytes @ 0x6
   422  0046                     	ds	2
   423  0048                     ??_beeper_set_freq_hz:	
   424                           
   425                           ; 1 bytes @ 0x8
   426  0048                     	ds	2
   427  004A                     ?_beeper_play_tone:	
   428  004A                     beeper_play_tone@freq:	
   429                           ; 1 bytes @ 0xA
   430                           
   431                           
   432                           ; 2 bytes @ 0xA
   433  004A                     	ds	2
   434  004C                     beeper_play_tone@duration:	
   435                           
   436                           ; 2 bytes @ 0xC
   437  004C                     	ds	2
   438  004E                     ??_loop:	
   439                           
   440                           ; 1 bytes @ 0xE
   441  004E                     	ds	1
   442  004F                     loop@i:	
   443                           
   444                           ; 1 bytes @ 0xF
   445  004F                     	ds	1
   446  0050                     loop@i_79:	
   447                           
   448                           ; 1 bytes @ 0x10
   449  0050                     	ds	1
   450  0051                     loop@i_80:	
   451                           
   452                           ; 1 bytes @ 0x11
   453  0051                     	ds	1
   454                           
   455                           	psect	maintext
   456  0393                     __pmaintext:	
   457 ;;
   458 ;;Main: autosize = 0, tempsize = 0, incstack = 0, save=0
   459 ;;
   460 ;; *************** function _main *****************
   461 ;; Defined at:
   462 ;;		line 106 in file "main.c"
   463 ;; Parameters:    Size  Location     Type
   464 ;;		None
   465 ;; Auto vars:     Size  Location     Type
   466 ;;		None
   467 ;; Return value:  Size  Location     Type
   468 ;;                  1    wreg      void 
   469 ;; Registers used:
   470 ;;		wreg, status,2, status,0, pclath, cstack
   471 ;; Tracked objects:
   472 ;;		On entry : B00/0
   473 ;;		On exit  : 0/0
   474 ;;		Unchanged: 0/0
   475 ;; Data sizes:     COMMON   BANK0
   476 ;;      Params:         0       0
   477 ;;      Locals:         0       0
   478 ;;      Temps:          0       0
   479 ;;      Totals:         0       0
   480 ;;Total ram usage:        0 bytes
   481 ;; Hardware stack levels required when called:    5
   482 ;; This function calls:
   483 ;;		_init
   484 ;;		_loop
   485 ;; This function is called by:
   486 ;;		Startup code after reset
   487 ;; This function uses a non-reentrant model
   488 ;;
   489                           
   490                           
   491                           ;psect for function _main
   492  0393                     _main:	
   493                           
   494                           ;main.c: 107:   init();
   495                           
   496                           ;incstack = 0
   497                           ; Regs used in _main: [wreg+status,2+status,0+pclath+cstack]
   498  0393  2371               	fcall	_init
   499  0394                     l32:	
   500                           ;main.c: 108:   while(1) {
   501                           
   502                           
   503                           ;main.c: 109:     loop();
   504  0394  2012               	fcall	_loop
   505  0395  2B94               	goto	l32
   506  0396                     __end_of_main:	
   507                           
   508                           	psect	text1
   509  0012                     __ptext1:	
   510 ;; *************** function _loop *****************
   511 ;; Defined at:
   512 ;;		line 38 in file "main.c"
   513 ;; Parameters:    Size  Location     Type
   514 ;;		None
   515 ;; Auto vars:     Size  Location     Type
   516 ;;  i               1   17[BANK0 ] unsigned char 
   517 ;;  i               1   16[BANK0 ] unsigned char 
   518 ;;  i               1   15[BANK0 ] unsigned char 
   519 ;; Return value:  Size  Location     Type
   520 ;;                  1    wreg      void 
   521 ;; Registers used:
   522 ;;		wreg, status,2, status,0, pclath, cstack
   523 ;; Tracked objects:
   524 ;;		On entry : 0/0
   525 ;;		On exit  : 0/0
   526 ;;		Unchanged: 0/0
   527 ;; Data sizes:     COMMON   BANK0
   528 ;;      Params:         0       0
   529 ;;      Locals:         0       3
   530 ;;      Temps:          0       1
   531 ;;      Totals:         0       4
   532 ;;Total ram usage:        4 bytes
   533 ;; Hardware stack levels used:    1
   534 ;; Hardware stack levels required when called:    4
   535 ;; This function calls:
   536 ;;		_beeper_play_tone
   537 ;;		_beeper_set_duration_divisor
   538 ;;		_beeper_set_freq_multiplier
   539 ;;		_beeper_wait_duration
   540 ;; This function is called by:
   541 ;;		_main
   542 ;; This function uses a non-reentrant model
   543 ;;
   544                           
   545                           
   546                           ;psect for function _loop
   547  0012                     _loop:	
   548                           
   549                           ;main.c: 41:   beeper_set_freq_multiplier(8);
   550                           
   551                           ;incstack = 0
   552                           ; Regs used in _loop: [wreg+status,2+status,0+pclath+cstack]
   553  0012  3008               	movlw	8
   554  0013  237B               	fcall	_beeper_set_freq_multiplier
   555                           
   556                           ;main.c: 42:   beeper_set_duration_divisor(6);
   557  0014  3006               	movlw	6
   558  0015  2383               	fcall	_beeper_set_duration_divisor
   559                           
   560                           ;main.c: 44:   for (uint8_t i = 0; i < 5; i++) {
   561  0016  1283               	bcf	3,5	;RP0=0, select bank0
   562  0017  1303               	bcf	3,6	;RP1=0, select bank0
   563  0018  01CF               	clrf	loop@i
   564  0019                     l989:	
   565                           
   566                           ;main.c: 45:     beeper_wait_duration(2000);
   567  0019  30D0               	movlw	208
   568  001A  00C0               	movwf	beeper_wait_duration@duration
   569  001B  3007               	movlw	7
   570  001C  00C1               	movwf	beeper_wait_duration@duration+1
   571  001D  2251               	fcall	_beeper_wait_duration
   572                           
   573                           ;main.c: 46:   }
   574  001E  3001               	movlw	1
   575  001F  1283               	bcf	3,5	;RP0=0, select bank0
   576  0020  1303               	bcf	3,6	;RP1=0, select bank0
   577  0021  00CE               	movwf	??_loop
   578  0022  084E               	movf	??_loop,w
   579  0023  07CF               	addwf	loop@i,f
   580  0024  3005               	movlw	5
   581  0025  024F               	subwf	loop@i,w
   582  0026  1C03               	skipc
   583  0027  2819               	goto	l989
   584                           
   585                           ;main.c: 49:   beeper_play_tone(329, 500);
   586  0028  3049               	movlw	73
   587  0029  00CA               	movwf	beeper_play_tone@freq
   588  002A  3001               	movlw	1
   589  002B  00CB               	movwf	beeper_play_tone@freq+1
   590  002C  30F4               	movlw	244
   591  002D  00CC               	movwf	beeper_play_tone@duration
   592  002E  3001               	movlw	1
   593  002F  00CD               	movwf	beeper_play_tone@duration+1
   594  0030  2360               	fcall	_beeper_play_tone
   595                           
   596                           ;main.c: 50:   beeper_play_tone(294, 500);
   597  0031  3026               	movlw	38
   598  0032  1283               	bcf	3,5	;RP0=0, select bank0
   599  0033  1303               	bcf	3,6	;RP1=0, select bank0
   600  0034  00CA               	movwf	beeper_play_tone@freq
   601  0035  3001               	movlw	1
   602  0036  00CB               	movwf	beeper_play_tone@freq+1
   603  0037  30F4               	movlw	244
   604  0038  00CC               	movwf	beeper_play_tone@duration
   605  0039  3001               	movlw	1
   606  003A  00CD               	movwf	beeper_play_tone@duration+1
   607  003B  2360               	fcall	_beeper_play_tone
   608                           
   609                           ;main.c: 51:   beeper_play_tone(185, 1000);
   610  003C  30B9               	movlw	185
   611  003D  1283               	bcf	3,5	;RP0=0, select bank0
   612  003E  1303               	bcf	3,6	;RP1=0, select bank0
   613  003F  00CA               	movwf	beeper_play_tone@freq
   614  0040  3000               	movlw	0
   615  0041  00CB               	movwf	beeper_play_tone@freq+1
   616  0042  30E8               	movlw	232
   617  0043  00CC               	movwf	beeper_play_tone@duration
   618  0044  3003               	movlw	3
   619  0045  00CD               	movwf	beeper_play_tone@duration+1
   620  0046  2360               	fcall	_beeper_play_tone
   621                           
   622                           ;main.c: 52:   beeper_play_tone(207, 1000);
   623  0047  30CF               	movlw	207
   624  0048  1283               	bcf	3,5	;RP0=0, select bank0
   625  0049  1303               	bcf	3,6	;RP1=0, select bank0
   626  004A  00CA               	movwf	beeper_play_tone@freq
   627  004B  3000               	movlw	0
   628  004C  00CB               	movwf	beeper_play_tone@freq+1
   629  004D  30E8               	movlw	232
   630  004E  00CC               	movwf	beeper_play_tone@duration
   631  004F  3003               	movlw	3
   632  0050  00CD               	movwf	beeper_play_tone@duration+1
   633  0051  2360               	fcall	_beeper_play_tone
   634                           
   635                           ;main.c: 53:   beeper_play_tone(277, 500);
   636  0052  3015               	movlw	21
   637  0053  1283               	bcf	3,5	;RP0=0, select bank0
   638  0054  1303               	bcf	3,6	;RP1=0, select bank0
   639  0055  00CA               	movwf	beeper_play_tone@freq
   640  0056  3001               	movlw	1
   641  0057  00CB               	movwf	beeper_play_tone@freq+1
   642  0058  30F4               	movlw	244
   643  0059  00CC               	movwf	beeper_play_tone@duration
   644  005A  3001               	movlw	1
   645  005B  00CD               	movwf	beeper_play_tone@duration+1
   646  005C  2360               	fcall	_beeper_play_tone
   647                           
   648                           ;main.c: 54:   beeper_play_tone(247, 500);
   649  005D  30F7               	movlw	247
   650  005E  1283               	bcf	3,5	;RP0=0, select bank0
   651  005F  1303               	bcf	3,6	;RP1=0, select bank0
   652  0060  00CA               	movwf	beeper_play_tone@freq
   653  0061  3000               	movlw	0
   654  0062  00CB               	movwf	beeper_play_tone@freq+1
   655  0063  30F4               	movlw	244
   656  0064  00CC               	movwf	beeper_play_tone@duration
   657  0065  3001               	movlw	1
   658  0066  00CD               	movwf	beeper_play_tone@duration+1
   659  0067  2360               	fcall	_beeper_play_tone
   660                           
   661                           ;main.c: 55:   beeper_play_tone(147, 1000);
   662  0068  3093               	movlw	147
   663  0069  1283               	bcf	3,5	;RP0=0, select bank0
   664  006A  1303               	bcf	3,6	;RP1=0, select bank0
   665  006B  00CA               	movwf	beeper_play_tone@freq
   666  006C  3000               	movlw	0
   667  006D  00CB               	movwf	beeper_play_tone@freq+1
   668  006E  30E8               	movlw	232
   669  006F  00CC               	movwf	beeper_play_tone@duration
   670  0070  3003               	movlw	3
   671  0071  00CD               	movwf	beeper_play_tone@duration+1
   672  0072  2360               	fcall	_beeper_play_tone
   673                           
   674                           ;main.c: 56:   beeper_play_tone(164, 1000);
   675  0073  30A4               	movlw	164
   676  0074  1283               	bcf	3,5	;RP0=0, select bank0
   677  0075  1303               	bcf	3,6	;RP1=0, select bank0
   678  0076  00CA               	movwf	beeper_play_tone@freq
   679  0077  3000               	movlw	0
   680  0078  00CB               	movwf	beeper_play_tone@freq+1
   681  0079  30E8               	movlw	232
   682  007A  00CC               	movwf	beeper_play_tone@duration
   683  007B  3003               	movlw	3
   684  007C  00CD               	movwf	beeper_play_tone@duration+1
   685  007D  2360               	fcall	_beeper_play_tone
   686                           
   687                           ;main.c: 57:   beeper_play_tone(247, 500);
   688  007E  30F7               	movlw	247
   689  007F  1283               	bcf	3,5	;RP0=0, select bank0
   690  0080  1303               	bcf	3,6	;RP1=0, select bank0
   691  0081  00CA               	movwf	beeper_play_tone@freq
   692  0082  3000               	movlw	0
   693  0083  00CB               	movwf	beeper_play_tone@freq+1
   694  0084  30F4               	movlw	244
   695  0085  00CC               	movwf	beeper_play_tone@duration
   696  0086  3001               	movlw	1
   697  0087  00CD               	movwf	beeper_play_tone@duration+1
   698  0088  2360               	fcall	_beeper_play_tone
   699                           
   700                           ;main.c: 58:   beeper_play_tone(220, 500);
   701  0089  30DC               	movlw	220
   702  008A  1283               	bcf	3,5	;RP0=0, select bank0
   703  008B  1303               	bcf	3,6	;RP1=0, select bank0
   704  008C  00CA               	movwf	beeper_play_tone@freq
   705  008D  3000               	movlw	0
   706  008E  00CB               	movwf	beeper_play_tone@freq+1
   707  008F  30F4               	movlw	244
   708  0090  00CC               	movwf	beeper_play_tone@duration
   709  0091  3001               	movlw	1
   710  0092  00CD               	movwf	beeper_play_tone@duration+1
   711  0093  2360               	fcall	_beeper_play_tone
   712                           
   713                           ;main.c: 59:   beeper_play_tone(139, 1000);
   714  0094  308B               	movlw	139
   715  0095  1283               	bcf	3,5	;RP0=0, select bank0
   716  0096  1303               	bcf	3,6	;RP1=0, select bank0
   717  0097  00CA               	movwf	beeper_play_tone@freq
   718  0098  3000               	movlw	0
   719  0099  00CB               	movwf	beeper_play_tone@freq+1
   720  009A  30E8               	movlw	232
   721  009B  00CC               	movwf	beeper_play_tone@duration
   722  009C  3003               	movlw	3
   723  009D  00CD               	movwf	beeper_play_tone@duration+1
   724  009E  2360               	fcall	_beeper_play_tone
   725                           
   726                           ;main.c: 60:   beeper_play_tone(165, 1000);
   727  009F  30A5               	movlw	165
   728  00A0  1283               	bcf	3,5	;RP0=0, select bank0
   729  00A1  1303               	bcf	3,6	;RP1=0, select bank0
   730  00A2  00CA               	movwf	beeper_play_tone@freq
   731  00A3  3000               	movlw	0
   732  00A4  00CB               	movwf	beeper_play_tone@freq+1
   733  00A5  30E8               	movlw	232
   734  00A6  00CC               	movwf	beeper_play_tone@duration
   735  00A7  3003               	movlw	3
   736  00A8  00CD               	movwf	beeper_play_tone@duration+1
   737  00A9  2360               	fcall	_beeper_play_tone
   738                           
   739                           ;main.c: 61:   beeper_play_tone(220, 3000);
   740  00AA  30DC               	movlw	220
   741  00AB  1283               	bcf	3,5	;RP0=0, select bank0
   742  00AC  1303               	bcf	3,6	;RP1=0, select bank0
   743  00AD  00CA               	movwf	beeper_play_tone@freq
   744  00AE  3000               	movlw	0
   745  00AF  00CB               	movwf	beeper_play_tone@freq+1
   746  00B0  30B8               	movlw	184
   747  00B1  00CC               	movwf	beeper_play_tone@duration
   748  00B2  300B               	movlw	11
   749  00B3  00CD               	movwf	beeper_play_tone@duration+1
   750  00B4  2360               	fcall	_beeper_play_tone
   751                           
   752                           ;main.c: 63:   for (uint8_t i = 0; i < 5; i++) {
   753  00B5  1283               	bcf	3,5	;RP0=0, select bank0
   754  00B6  1303               	bcf	3,6	;RP1=0, select bank0
   755  00B7  01D0               	clrf	loop@i_79
   756  00B8                     l1003:	
   757                           
   758                           ;main.c: 64:     beeper_wait_duration(2000);
   759  00B8  30D0               	movlw	208
   760  00B9  00C0               	movwf	beeper_wait_duration@duration
   761  00BA  3007               	movlw	7
   762  00BB  00C1               	movwf	beeper_wait_duration@duration+1
   763  00BC  2251               	fcall	_beeper_wait_duration
   764                           
   765                           ;main.c: 65:   }
   766  00BD  3001               	movlw	1
   767  00BE  1283               	bcf	3,5	;RP0=0, select bank0
   768  00BF  1303               	bcf	3,6	;RP1=0, select bank0
   769  00C0  00CE               	movwf	??_loop
   770  00C1  084E               	movf	??_loop,w
   771  00C2  07D0               	addwf	loop@i_79,f
   772  00C3  3005               	movlw	5
   773  00C4  0250               	subwf	loop@i_79,w
   774  00C5  1C03               	skipc
   775  00C6  28B8               	goto	l1003
   776                           
   777                           ;main.c: 69:   beeper_set_freq_multiplier(6);
   778  00C7  3006               	movlw	6
   779  00C8  237B               	fcall	_beeper_set_freq_multiplier
   780                           
   781                           ;main.c: 70:   beeper_set_duration_divisor(4);
   782  00C9  3004               	movlw	4
   783  00CA  2383               	fcall	_beeper_set_duration_divisor
   784                           
   785                           ;main.c: 72:   beeper_play_tone(262, 500);
   786  00CB  3006               	movlw	6
   787  00CC  1283               	bcf	3,5	;RP0=0, select bank0
   788  00CD  1303               	bcf	3,6	;RP1=0, select bank0
   789  00CE  00CA               	movwf	beeper_play_tone@freq
   790  00CF  3001               	movlw	1
   791  00D0  00CB               	movwf	beeper_play_tone@freq+1
   792  00D1  30F4               	movlw	244
   793  00D2  00CC               	movwf	beeper_play_tone@duration
   794  00D3  3001               	movlw	1
   795  00D4  00CD               	movwf	beeper_play_tone@duration+1
   796  00D5  2360               	fcall	_beeper_play_tone
   797                           
   798                           ;main.c: 73:   beeper_play_tone(262, 500);
   799  00D6  3006               	movlw	6
   800  00D7  1283               	bcf	3,5	;RP0=0, select bank0
   801  00D8  1303               	bcf	3,6	;RP1=0, select bank0
   802  00D9  00CA               	movwf	beeper_play_tone@freq
   803  00DA  3001               	movlw	1
   804  00DB  00CB               	movwf	beeper_play_tone@freq+1
   805  00DC  30F4               	movlw	244
   806  00DD  00CC               	movwf	beeper_play_tone@duration
   807  00DE  3001               	movlw	1
   808  00DF  00CD               	movwf	beeper_play_tone@duration+1
   809  00E0  2360               	fcall	_beeper_play_tone
   810                           
   811                           ;main.c: 74:   beeper_play_tone(294, 1000);
   812  00E1  3026               	movlw	38
   813  00E2  1283               	bcf	3,5	;RP0=0, select bank0
   814  00E3  1303               	bcf	3,6	;RP1=0, select bank0
   815  00E4  00CA               	movwf	beeper_play_tone@freq
   816  00E5  3001               	movlw	1
   817  00E6  00CB               	movwf	beeper_play_tone@freq+1
   818  00E7  30E8               	movlw	232
   819  00E8  00CC               	movwf	beeper_play_tone@duration
   820  00E9  3003               	movlw	3
   821  00EA  00CD               	movwf	beeper_play_tone@duration+1
   822  00EB  2360               	fcall	_beeper_play_tone
   823                           
   824                           ;main.c: 75:   beeper_play_tone(262, 1000);
   825  00EC  3006               	movlw	6
   826  00ED  1283               	bcf	3,5	;RP0=0, select bank0
   827  00EE  1303               	bcf	3,6	;RP1=0, select bank0
   828  00EF  00CA               	movwf	beeper_play_tone@freq
   829  00F0  3001               	movlw	1
   830  00F1  00CB               	movwf	beeper_play_tone@freq+1
   831  00F2  30E8               	movlw	232
   832  00F3  00CC               	movwf	beeper_play_tone@duration
   833  00F4  3003               	movlw	3
   834  00F5  00CD               	movwf	beeper_play_tone@duration+1
   835  00F6  2360               	fcall	_beeper_play_tone
   836                           
   837                           ;main.c: 76:   beeper_play_tone(349, 1000);
   838  00F7  305D               	movlw	93
   839  00F8  1283               	bcf	3,5	;RP0=0, select bank0
   840  00F9  1303               	bcf	3,6	;RP1=0, select bank0
   841  00FA  00CA               	movwf	beeper_play_tone@freq
   842  00FB  3001               	movlw	1
   843  00FC  00CB               	movwf	beeper_play_tone@freq+1
   844  00FD  30E8               	movlw	232
   845  00FE  00CC               	movwf	beeper_play_tone@duration
   846  00FF  3003               	movlw	3
   847  0100  00CD               	movwf	beeper_play_tone@duration+1
   848  0101  2360               	fcall	_beeper_play_tone
   849                           
   850                           ;main.c: 77:   beeper_play_tone(330, 2000);
   851  0102  304A               	movlw	74
   852  0103  1283               	bcf	3,5	;RP0=0, select bank0
   853  0104  1303               	bcf	3,6	;RP1=0, select bank0
   854  0105  00CA               	movwf	beeper_play_tone@freq
   855  0106  3001               	movlw	1
   856  0107  00CB               	movwf	beeper_play_tone@freq+1
   857  0108  30D0               	movlw	208
   858  0109  00CC               	movwf	beeper_play_tone@duration
   859  010A  3007               	movlw	7
   860  010B  00CD               	movwf	beeper_play_tone@duration+1
   861  010C  2360               	fcall	_beeper_play_tone
   862                           
   863                           ;main.c: 78:   beeper_play_tone(262, 500);
   864  010D  3006               	movlw	6
   865  010E  1283               	bcf	3,5	;RP0=0, select bank0
   866  010F  1303               	bcf	3,6	;RP1=0, select bank0
   867  0110  00CA               	movwf	beeper_play_tone@freq
   868  0111  3001               	movlw	1
   869  0112  00CB               	movwf	beeper_play_tone@freq+1
   870  0113  30F4               	movlw	244
   871  0114  00CC               	movwf	beeper_play_tone@duration
   872  0115  3001               	movlw	1
   873  0116  00CD               	movwf	beeper_play_tone@duration+1
   874  0117  2360               	fcall	_beeper_play_tone
   875                           
   876                           ;main.c: 79:   beeper_play_tone(262, 500);
   877  0118  3006               	movlw	6
   878  0119  1283               	bcf	3,5	;RP0=0, select bank0
   879  011A  1303               	bcf	3,6	;RP1=0, select bank0
   880  011B  00CA               	movwf	beeper_play_tone@freq
   881  011C  3001               	movlw	1
   882  011D  00CB               	movwf	beeper_play_tone@freq+1
   883  011E  30F4               	movlw	244
   884  011F  00CC               	movwf	beeper_play_tone@duration
   885  0120  3001               	movlw	1
   886  0121  00CD               	movwf	beeper_play_tone@duration+1
   887  0122  2360               	fcall	_beeper_play_tone
   888                           
   889                           ;main.c: 80:   beeper_play_tone(294, 1000);
   890  0123  3026               	movlw	38
   891  0124  1283               	bcf	3,5	;RP0=0, select bank0
   892  0125  1303               	bcf	3,6	;RP1=0, select bank0
   893  0126  00CA               	movwf	beeper_play_tone@freq
   894  0127  3001               	movlw	1
   895  0128  00CB               	movwf	beeper_play_tone@freq+1
   896  0129  30E8               	movlw	232
   897  012A  00CC               	movwf	beeper_play_tone@duration
   898  012B  3003               	movlw	3
   899  012C  00CD               	movwf	beeper_play_tone@duration+1
   900  012D  2360               	fcall	_beeper_play_tone
   901                           
   902                           ;main.c: 82:   beeper_play_tone(262, 1000);
   903  012E  3006               	movlw	6
   904  012F  1283               	bcf	3,5	;RP0=0, select bank0
   905  0130  1303               	bcf	3,6	;RP1=0, select bank0
   906  0131  00CA               	movwf	beeper_play_tone@freq
   907  0132  3001               	movlw	1
   908  0133  00CB               	movwf	beeper_play_tone@freq+1
   909  0134  30E8               	movlw	232
   910  0135  00CC               	movwf	beeper_play_tone@duration
   911  0136  3003               	movlw	3
   912  0137  00CD               	movwf	beeper_play_tone@duration+1
   913  0138  2360               	fcall	_beeper_play_tone
   914                           
   915                           ;main.c: 83:   beeper_play_tone(392, 1000);
   916  0139  3088               	movlw	136
   917  013A  1283               	bcf	3,5	;RP0=0, select bank0
   918  013B  1303               	bcf	3,6	;RP1=0, select bank0
   919  013C  00CA               	movwf	beeper_play_tone@freq
   920  013D  3001               	movlw	1
   921  013E  00CB               	movwf	beeper_play_tone@freq+1
   922  013F  30E8               	movlw	232
   923  0140  00CC               	movwf	beeper_play_tone@duration
   924  0141  3003               	movlw	3
   925  0142  00CD               	movwf	beeper_play_tone@duration+1
   926  0143  2360               	fcall	_beeper_play_tone
   927                           
   928                           ;main.c: 84:   beeper_play_tone(349, 2000);
   929  0144  305D               	movlw	93
   930  0145  1283               	bcf	3,5	;RP0=0, select bank0
   931  0146  1303               	bcf	3,6	;RP1=0, select bank0
   932  0147  00CA               	movwf	beeper_play_tone@freq
   933  0148  3001               	movlw	1
   934  0149  00CB               	movwf	beeper_play_tone@freq+1
   935  014A  30D0               	movlw	208
   936  014B  00CC               	movwf	beeper_play_tone@duration
   937  014C  3007               	movlw	7
   938  014D  00CD               	movwf	beeper_play_tone@duration+1
   939  014E  2360               	fcall	_beeper_play_tone
   940                           
   941                           ;main.c: 85:   beeper_play_tone(262, 500);
   942  014F  3006               	movlw	6
   943  0150  1283               	bcf	3,5	;RP0=0, select bank0
   944  0151  1303               	bcf	3,6	;RP1=0, select bank0
   945  0152  00CA               	movwf	beeper_play_tone@freq
   946  0153  3001               	movlw	1
   947  0154  00CB               	movwf	beeper_play_tone@freq+1
   948  0155  30F4               	movlw	244
   949  0156  00CC               	movwf	beeper_play_tone@duration
   950  0157  3001               	movlw	1
   951  0158  00CD               	movwf	beeper_play_tone@duration+1
   952  0159  2360               	fcall	_beeper_play_tone
   953                           
   954                           ;main.c: 86:   beeper_play_tone(262, 500);
   955  015A  3006               	movlw	6
   956  015B  1283               	bcf	3,5	;RP0=0, select bank0
   957  015C  1303               	bcf	3,6	;RP1=0, select bank0
   958  015D  00CA               	movwf	beeper_play_tone@freq
   959  015E  3001               	movlw	1
   960  015F  00CB               	movwf	beeper_play_tone@freq+1
   961  0160  30F4               	movlw	244
   962  0161  00CC               	movwf	beeper_play_tone@duration
   963  0162  3001               	movlw	1
   964  0163  00CD               	movwf	beeper_play_tone@duration+1
   965  0164  2360               	fcall	_beeper_play_tone
   966                           
   967                           ;main.c: 87:   beeper_play_tone(523, 500);
   968  0165  300B               	movlw	11
   969  0166  1283               	bcf	3,5	;RP0=0, select bank0
   970  0167  1303               	bcf	3,6	;RP1=0, select bank0
   971  0168  00CA               	movwf	beeper_play_tone@freq
   972  0169  3002               	movlw	2
   973  016A  00CB               	movwf	beeper_play_tone@freq+1
   974  016B  30F4               	movlw	244
   975  016C  00CC               	movwf	beeper_play_tone@duration
   976  016D  3001               	movlw	1
   977  016E  00CD               	movwf	beeper_play_tone@duration+1
   978  016F  2360               	fcall	_beeper_play_tone
   979                           
   980                           ;main.c: 88:   beeper_play_tone(440, 1000);
   981  0170  30B8               	movlw	184
   982  0171  1283               	bcf	3,5	;RP0=0, select bank0
   983  0172  1303               	bcf	3,6	;RP1=0, select bank0
   984  0173  00CA               	movwf	beeper_play_tone@freq
   985  0174  3001               	movlw	1
   986  0175  00CB               	movwf	beeper_play_tone@freq+1
   987  0176  30E8               	movlw	232
   988  0177  00CC               	movwf	beeper_play_tone@duration
   989  0178  3003               	movlw	3
   990  0179  00CD               	movwf	beeper_play_tone@duration+1
   991  017A  2360               	fcall	_beeper_play_tone
   992                           
   993                           ;main.c: 89:   beeper_play_tone(349, 1000);
   994  017B  305D               	movlw	93
   995  017C  1283               	bcf	3,5	;RP0=0, select bank0
   996  017D  1303               	bcf	3,6	;RP1=0, select bank0
   997  017E  00CA               	movwf	beeper_play_tone@freq
   998  017F  3001               	movlw	1
   999  0180  00CB               	movwf	beeper_play_tone@freq+1
  1000  0181  30E8               	movlw	232
  1001  0182  00CC               	movwf	beeper_play_tone@duration
  1002  0183  3003               	movlw	3
  1003  0184  00CD               	movwf	beeper_play_tone@duration+1
  1004  0185  2360               	fcall	_beeper_play_tone
  1005                           
  1006                           ;main.c: 90:   beeper_play_tone(330, 1000);
  1007  0186  304A               	movlw	74
  1008  0187  1283               	bcf	3,5	;RP0=0, select bank0
  1009  0188  1303               	bcf	3,6	;RP1=0, select bank0
  1010  0189  00CA               	movwf	beeper_play_tone@freq
  1011  018A  3001               	movlw	1
  1012  018B  00CB               	movwf	beeper_play_tone@freq+1
  1013  018C  30E8               	movlw	232
  1014  018D  00CC               	movwf	beeper_play_tone@duration
  1015  018E  3003               	movlw	3
  1016  018F  00CD               	movwf	beeper_play_tone@duration+1
  1017  0190  2360               	fcall	_beeper_play_tone
  1018                           
  1019                           ;main.c: 92:   beeper_play_tone(294, 2000);
  1020  0191  3026               	movlw	38
  1021  0192  1283               	bcf	3,5	;RP0=0, select bank0
  1022  0193  1303               	bcf	3,6	;RP1=0, select bank0
  1023  0194  00CA               	movwf	beeper_play_tone@freq
  1024  0195  3001               	movlw	1
  1025  0196  00CB               	movwf	beeper_play_tone@freq+1
  1026  0197  30D0               	movlw	208
  1027  0198  00CC               	movwf	beeper_play_tone@duration
  1028  0199  3007               	movlw	7
  1029  019A  00CD               	movwf	beeper_play_tone@duration+1
  1030  019B  2360               	fcall	_beeper_play_tone
  1031                           
  1032                           ;main.c: 93:   beeper_play_tone(466, 500);
  1033  019C  30D2               	movlw	210
  1034  019D  1283               	bcf	3,5	;RP0=0, select bank0
  1035  019E  1303               	bcf	3,6	;RP1=0, select bank0
  1036  019F  00CA               	movwf	beeper_play_tone@freq
  1037  01A0  3001               	movlw	1
  1038  01A1  00CB               	movwf	beeper_play_tone@freq+1
  1039  01A2  30F4               	movlw	244
  1040  01A3  00CC               	movwf	beeper_play_tone@duration
  1041  01A4  3001               	movlw	1
  1042  01A5  00CD               	movwf	beeper_play_tone@duration+1
  1043  01A6  2360               	fcall	_beeper_play_tone
  1044                           
  1045                           ;main.c: 94:   beeper_play_tone(466, 500);
  1046  01A7  30D2               	movlw	210
  1047  01A8  1283               	bcf	3,5	;RP0=0, select bank0
  1048  01A9  1303               	bcf	3,6	;RP1=0, select bank0
  1049  01AA  00CA               	movwf	beeper_play_tone@freq
  1050  01AB  3001               	movlw	1
  1051  01AC  00CB               	movwf	beeper_play_tone@freq+1
  1052  01AD  30F4               	movlw	244
  1053  01AE  00CC               	movwf	beeper_play_tone@duration
  1054  01AF  3001               	movlw	1
  1055  01B0  00CD               	movwf	beeper_play_tone@duration+1
  1056  01B1  2360               	fcall	_beeper_play_tone
  1057                           
  1058                           ;main.c: 95:   beeper_play_tone(440, 1000);
  1059  01B2  30B8               	movlw	184
  1060  01B3  1283               	bcf	3,5	;RP0=0, select bank0
  1061  01B4  1303               	bcf	3,6	;RP1=0, select bank0
  1062  01B5  00CA               	movwf	beeper_play_tone@freq
  1063  01B6  3001               	movlw	1
  1064  01B7  00CB               	movwf	beeper_play_tone@freq+1
  1065  01B8  30E8               	movlw	232
  1066  01B9  00CC               	movwf	beeper_play_tone@duration
  1067  01BA  3003               	movlw	3
  1068  01BB  00CD               	movwf	beeper_play_tone@duration+1
  1069  01BC  2360               	fcall	_beeper_play_tone
  1070                           
  1071                           ;main.c: 96:   beeper_play_tone(349, 1000);
  1072  01BD  305D               	movlw	93
  1073  01BE  1283               	bcf	3,5	;RP0=0, select bank0
  1074  01BF  1303               	bcf	3,6	;RP1=0, select bank0
  1075  01C0  00CA               	movwf	beeper_play_tone@freq
  1076  01C1  3001               	movlw	1
  1077  01C2  00CB               	movwf	beeper_play_tone@freq+1
  1078  01C3  30E8               	movlw	232
  1079  01C4  00CC               	movwf	beeper_play_tone@duration
  1080  01C5  3003               	movlw	3
  1081  01C6  00CD               	movwf	beeper_play_tone@duration+1
  1082  01C7  2360               	fcall	_beeper_play_tone
  1083                           
  1084                           ;main.c: 97:   beeper_play_tone(392, 1000);
  1085  01C8  3088               	movlw	136
  1086  01C9  1283               	bcf	3,5	;RP0=0, select bank0
  1087  01CA  1303               	bcf	3,6	;RP1=0, select bank0
  1088  01CB  00CA               	movwf	beeper_play_tone@freq
  1089  01CC  3001               	movlw	1
  1090  01CD  00CB               	movwf	beeper_play_tone@freq+1
  1091  01CE  30E8               	movlw	232
  1092  01CF  00CC               	movwf	beeper_play_tone@duration
  1093  01D0  3003               	movlw	3
  1094  01D1  00CD               	movwf	beeper_play_tone@duration+1
  1095  01D2  2360               	fcall	_beeper_play_tone
  1096                           
  1097                           ;main.c: 98:   beeper_play_tone(349, 2000);
  1098  01D3  305D               	movlw	93
  1099  01D4  1283               	bcf	3,5	;RP0=0, select bank0
  1100  01D5  1303               	bcf	3,6	;RP1=0, select bank0
  1101  01D6  00CA               	movwf	beeper_play_tone@freq
  1102  01D7  3001               	movlw	1
  1103  01D8  00CB               	movwf	beeper_play_tone@freq+1
  1104  01D9  30D0               	movlw	208
  1105  01DA  00CC               	movwf	beeper_play_tone@duration
  1106  01DB  3007               	movlw	7
  1107  01DC  00CD               	movwf	beeper_play_tone@duration+1
  1108  01DD  2360               	fcall	_beeper_play_tone
  1109                           
  1110                           ;main.c: 100:   for (uint8_t i = 0; i < 5; i++) {
  1111  01DE  1283               	bcf	3,5	;RP0=0, select bank0
  1112  01DF  1303               	bcf	3,6	;RP1=0, select bank0
  1113  01E0  01D1               	clrf	loop@i_80
  1114  01E1                     l1017:	
  1115                           
  1116                           ;main.c: 101:     beeper_wait_duration(2000);
  1117  01E1  30D0               	movlw	208
  1118  01E2  00C0               	movwf	beeper_wait_duration@duration
  1119  01E3  3007               	movlw	7
  1120  01E4  00C1               	movwf	beeper_wait_duration@duration+1
  1121  01E5  2251               	fcall	_beeper_wait_duration
  1122                           
  1123                           ;main.c: 102:   }
  1124  01E6  3001               	movlw	1
  1125  01E7  1283               	bcf	3,5	;RP0=0, select bank0
  1126  01E8  1303               	bcf	3,6	;RP1=0, select bank0
  1127  01E9  00CE               	movwf	??_loop
  1128  01EA  084E               	movf	??_loop,w
  1129  01EB  07D1               	addwf	loop@i_80,f
  1130  01EC  3005               	movlw	5
  1131  01ED  0251               	subwf	loop@i_80,w
  1132  01EE  1803               	btfsc	3,0
  1133  01EF  0008               	return
  1134  01F0  29E1               	goto	l1017
  1135  01F1                     __end_of_loop:	
  1136                           
  1137                           	psect	text2
  1138  037B                     __ptext2:	
  1139 ;; *************** function _beeper_set_freq_multiplier *****************
  1140 ;; Defined at:
  1141 ;;		line 71 in file "beeper.c"
  1142 ;; Parameters:    Size  Location     Type
  1143 ;;  freq_multipl    1    wreg     unsigned char 
  1144 ;; Auto vars:     Size  Location     Type
  1145 ;;  freq_multipl    1    3[COMMON] unsigned char 
  1146 ;; Return value:  Size  Location     Type
  1147 ;;                  1    wreg      void 
  1148 ;; Registers used:
  1149 ;;		wreg
  1150 ;; Tracked objects:
  1151 ;;		On entry : 0/0
  1152 ;;		On exit  : 0/0
  1153 ;;		Unchanged: 0/0
  1154 ;; Data sizes:     COMMON   BANK0
  1155 ;;      Params:         0       0
  1156 ;;      Locals:         1       0
  1157 ;;      Temps:          1       0
  1158 ;;      Totals:         2       0
  1159 ;;Total ram usage:        2 bytes
  1160 ;; Hardware stack levels used:    1
  1161 ;; Hardware stack levels required when called:    1
  1162 ;; This function calls:
  1163 ;;		Nothing
  1164 ;; This function is called by:
  1165 ;;		_loop
  1166 ;; This function uses a non-reentrant model
  1167 ;;
  1168                           
  1169                           
  1170                           ;psect for function _beeper_set_freq_multiplier
  1171  037B                     _beeper_set_freq_multiplier:	
  1172                           
  1173                           ;incstack = 0
  1174                           ; Regs used in _beeper_set_freq_multiplier: [wreg]
  1175                           ;beeper_set_freq_multiplier@freq_multiplier_in stored from wreg
  1176  037B  00F3               	movwf	beeper_set_freq_multiplier@freq_multiplier_in
  1177                           
  1178                           ;beeper.c: 72:   freq_multiplier = freq_multiplier_in;
  1179  037C  0873               	movf	beeper_set_freq_multiplier@freq_multiplier_in,w
  1180  037D  00F2               	movwf	??_beeper_set_freq_multiplier
  1181  037E  0872               	movf	??_beeper_set_freq_multiplier,w
  1182  037F  1283               	bcf	3,5	;RP0=0, select bank0
  1183  0380  1303               	bcf	3,6	;RP1=0, select bank0
  1184  0381  00D2               	movwf	_freq_multiplier
  1185  0382  0008               	return
  1186  0383                     __end_of_beeper_set_freq_multiplier:	
  1187                           
  1188                           	psect	text3
  1189  0383                     __ptext3:	
  1190 ;; *************** function _beeper_set_duration_divisor *****************
  1191 ;; Defined at:
  1192 ;;		line 75 in file "beeper.c"
  1193 ;; Parameters:    Size  Location     Type
  1194 ;;  duration_div    1    wreg     unsigned char 
  1195 ;; Auto vars:     Size  Location     Type
  1196 ;;  duration_div    1    3[COMMON] unsigned char 
  1197 ;; Return value:  Size  Location     Type
  1198 ;;                  1    wreg      void 
  1199 ;; Registers used:
  1200 ;;		wreg
  1201 ;; Tracked objects:
  1202 ;;		On entry : 0/0
  1203 ;;		On exit  : 0/0
  1204 ;;		Unchanged: 0/0
  1205 ;; Data sizes:     COMMON   BANK0
  1206 ;;      Params:         0       0
  1207 ;;      Locals:         1       0
  1208 ;;      Temps:          1       0
  1209 ;;      Totals:         2       0
  1210 ;;Total ram usage:        2 bytes
  1211 ;; Hardware stack levels used:    1
  1212 ;; Hardware stack levels required when called:    1
  1213 ;; This function calls:
  1214 ;;		Nothing
  1215 ;; This function is called by:
  1216 ;;		_loop
  1217 ;; This function uses a non-reentrant model
  1218 ;;
  1219                           
  1220                           
  1221                           ;psect for function _beeper_set_duration_divisor
  1222  0383                     _beeper_set_duration_divisor:	
  1223                           
  1224                           ;incstack = 0
  1225                           ; Regs used in _beeper_set_duration_divisor: [wreg]
  1226                           ;beeper_set_duration_divisor@duration_divisor_in stored from wreg
  1227  0383  00F3               	movwf	beeper_set_duration_divisor@duration_divisor_in
  1228                           
  1229                           ;beeper.c: 76:   duration_divisor = duration_divisor_in;
  1230  0384  0873               	movf	beeper_set_duration_divisor@duration_divisor_in,w
  1231  0385  00F2               	movwf	??_beeper_set_duration_divisor
  1232  0386  0872               	movf	??_beeper_set_duration_divisor,w
  1233  0387  00FB               	movwf	_duration_divisor
  1234  0388  0008               	return
  1235  0389                     __end_of_beeper_set_duration_divisor:	
  1236                           
  1237                           	psect	text4
  1238  0360                     __ptext4:	
  1239 ;; *************** function _beeper_play_tone *****************
  1240 ;; Defined at:
  1241 ;;		line 52 in file "beeper.c"
  1242 ;; Parameters:    Size  Location     Type
  1243 ;;  freq            2   10[BANK0 ] unsigned int 
  1244 ;;  duration        2   12[BANK0 ] unsigned int 
  1245 ;; Auto vars:     Size  Location     Type
  1246 ;;		None
  1247 ;; Return value:  Size  Location     Type
  1248 ;;                  1    wreg      void 
  1249 ;; Registers used:
  1250 ;;		wreg, status,2, status,0, pclath, cstack
  1251 ;; Tracked objects:
  1252 ;;		On entry : 0/0
  1253 ;;		On exit  : 0/0
  1254 ;;		Unchanged: 0/0
  1255 ;; Data sizes:     COMMON   BANK0
  1256 ;;      Params:         0       4
  1257 ;;      Locals:         0       0
  1258 ;;      Temps:          0       0
  1259 ;;      Totals:         0       4
  1260 ;;Total ram usage:        4 bytes
  1261 ;; Hardware stack levels used:    1
  1262 ;; Hardware stack levels required when called:    3
  1263 ;; This function calls:
  1264 ;;		_beeper_off
  1265 ;;		_beeper_on
  1266 ;;		_beeper_set_freq_hz
  1267 ;;		_beeper_wait_duration
  1268 ;; This function is called by:
  1269 ;;		_loop
  1270 ;; This function uses a non-reentrant model
  1271 ;;
  1272                           
  1273                           
  1274                           ;psect for function _beeper_play_tone
  1275  0360                     _beeper_play_tone:	
  1276                           
  1277                           ;beeper.c: 53:   beeper_set_freq_hz(freq);
  1278                           
  1279                           ;incstack = 0
  1280                           ; Regs used in _beeper_play_tone: [wreg+status,2+status,0+pclath+cstack]
  1281  0360  1283               	bcf	3,5	;RP0=0, select bank0
  1282  0361  1303               	bcf	3,6	;RP1=0, select bank0
  1283  0362  084B               	movf	beeper_play_tone@freq+1,w
  1284  0363  00C7               	movwf	beeper_set_freq_hz@freq+1
  1285  0364  084A               	movf	beeper_play_tone@freq,w
  1286  0365  00C6               	movwf	beeper_set_freq_hz@freq
  1287  0366  22F6               	fcall	_beeper_set_freq_hz
  1288                           
  1289                           ;beeper.c: 54:   beeper_on();
  1290  0367  2389               	fcall	_beeper_on
  1291                           
  1292                           ;beeper.c: 55:   beeper_wait_duration(duration);
  1293  0368  1283               	bcf	3,5	;RP0=0, select bank0
  1294  0369  1303               	bcf	3,6	;RP1=0, select bank0
  1295  036A  084D               	movf	beeper_play_tone@duration+1,w
  1296  036B  00C1               	movwf	beeper_wait_duration@duration+1
  1297  036C  084C               	movf	beeper_play_tone@duration,w
  1298  036D  00C0               	movwf	beeper_wait_duration@duration
  1299  036E  2251               	fcall	_beeper_wait_duration
  1300                           
  1301                           ;beeper.c: 56:   beeper_off();
  1302  036F  238E               	fcall	_beeper_off
  1303  0370  0008               	return
  1304  0371                     __end_of_beeper_play_tone:	
  1305                           
  1306                           	psect	text5
  1307  0251                     __ptext5:	
  1308 ;; *************** function _beeper_wait_duration *****************
  1309 ;; Defined at:
  1310 ;;		line 60 in file "beeper.c"
  1311 ;; Parameters:    Size  Location     Type
  1312 ;;  duration        2    0[BANK0 ] unsigned int 
  1313 ;; Auto vars:     Size  Location     Type
  1314 ;;  note_dur_clo    2    4[BANK0 ] unsigned int 
  1315 ;; Return value:  Size  Location     Type
  1316 ;;                  1    wreg      void 
  1317 ;; Registers used:
  1318 ;;		wreg, status,2, status,0, pclath, cstack
  1319 ;; Tracked objects:
  1320 ;;		On entry : 0/0
  1321 ;;		On exit  : 0/0
  1322 ;;		Unchanged: 0/0
  1323 ;; Data sizes:     COMMON   BANK0
  1324 ;;      Params:         0       2
  1325 ;;      Locals:         0       2
  1326 ;;      Temps:          0       2
  1327 ;;      Totals:         0       6
  1328 ;;Total ram usage:        6 bytes
  1329 ;; Hardware stack levels used:    1
  1330 ;; Hardware stack levels required when called:    2
  1331 ;; This function calls:
  1332 ;;		___lwdiv
  1333 ;;		___wmul
  1334 ;; This function is called by:
  1335 ;;		_loop
  1336 ;;		_beeper_play_tone
  1337 ;; This function uses a non-reentrant model
  1338 ;;
  1339                           
  1340                           
  1341                           ;psect for function _beeper_wait_duration
  1342  0251                     _beeper_wait_duration:	
  1343                           
  1344                           ;beeper.c: 61:   duration /= duration_divisor;
  1345                           
  1346                           ;incstack = 0
  1347                           ; Regs used in _beeper_wait_duration: [wreg+status,2+status,0+pclath+cstack]
  1348  0251  087B               	movf	_duration_divisor,w
  1349  0252  1283               	bcf	3,5	;RP0=0, select bank0
  1350  0253  1303               	bcf	3,6	;RP1=0, select bank0
  1351  0254  00C2               	movwf	??_beeper_wait_duration
  1352  0255  01C3               	clrf	??_beeper_wait_duration+1
  1353  0256  0842               	movf	??_beeper_wait_duration,w
  1354  0257  00F2               	movwf	___lwdiv@divisor
  1355  0258  0843               	movf	??_beeper_wait_duration+1,w
  1356  0259  00F3               	movwf	___lwdiv@divisor+1
  1357  025A  0841               	movf	beeper_wait_duration@duration+1,w
  1358  025B  00F5               	movwf	___lwdiv@dividend+1
  1359  025C  0840               	movf	beeper_wait_duration@duration,w
  1360  025D  00F4               	movwf	___lwdiv@dividend
  1361  025E  228E               	fcall	___lwdiv
  1362  025F  0873               	movf	?___lwdiv+1,w
  1363  0260  1283               	bcf	3,5	;RP0=0, select bank0
  1364  0261  1303               	bcf	3,6	;RP1=0, select bank0
  1365  0262  00C1               	movwf	beeper_wait_duration@duration+1
  1366  0263  0872               	movf	?___lwdiv,w
  1367  0264  00C0               	movwf	beeper_wait_duration@duration
  1368                           
  1369                           ;beeper.c: 62:   uint16_t note_dur_clock_ticks = duration / 8 * 250;
  1370  0265  0841               	movf	beeper_wait_duration@duration+1,w
  1371  0266  00C3               	movwf	??_beeper_wait_duration+1
  1372  0267  0840               	movf	beeper_wait_duration@duration,w
  1373  0268  00C2               	movwf	??_beeper_wait_duration
  1374  0269  1003               	clrc
  1375  026A  0CC3               	rrf	??_beeper_wait_duration+1,f
  1376  026B  0CC2               	rrf	??_beeper_wait_duration,f
  1377  026C  1003               	clrc
  1378  026D  0CC3               	rrf	??_beeper_wait_duration+1,f
  1379  026E  0CC2               	rrf	??_beeper_wait_duration,f
  1380  026F  1003               	clrc
  1381  0270  0CC3               	rrf	??_beeper_wait_duration+1,f
  1382  0271  0CC2               	rrf	??_beeper_wait_duration,f
  1383  0272  0842               	movf	??_beeper_wait_duration,w
  1384  0273  00F2               	movwf	___wmul@multiplier
  1385  0274  0843               	movf	??_beeper_wait_duration+1,w
  1386  0275  00F3               	movwf	___wmul@multiplier+1
  1387  0276  30FA               	movlw	250
  1388  0277  00F4               	movwf	___wmul@multiplicand
  1389  0278  3000               	movlw	0
  1390  0279  00F5               	movwf	___wmul@multiplicand+1
  1391  027A  231F               	fcall	___wmul
  1392  027B  0873               	movf	?___wmul+1,w
  1393  027C  1283               	bcf	3,5	;RP0=0, select bank0
  1394  027D  1303               	bcf	3,6	;RP1=0, select bank0
  1395  027E  00C5               	movwf	beeper_wait_duration@note_dur_clock_ticks+1
  1396  027F  0872               	movf	?___wmul,w
  1397  0280  00C4               	movwf	beeper_wait_duration@note_dur_clock_ticks
  1398                           
  1399                           ;beeper.c: 63:   note_dur_clock_ticks = 65535 - note_dur_clock_ticks;
  1400  0281  09C4               	comf	beeper_wait_duration@note_dur_clock_ticks,f
  1401  0282  09C5               	comf	beeper_wait_duration@note_dur_clock_ticks+1,f
  1402                           
  1403                           ;beeper.c: 64:   TMR1H = note_dur_clock_ticks >> 8;
  1404  0283  0845               	movf	beeper_wait_duration@note_dur_clock_ticks+1,w
  1405  0284  0090               	movwf	16	;volatile
  1406                           
  1407                           ;beeper.c: 65:   TMR1L = note_dur_clock_ticks & 0x00FF;
  1408  0285  0844               	movf	beeper_wait_duration@note_dur_clock_ticks,w
  1409  0286  008F               	movwf	15	;volatile
  1410                           
  1411                           ;beeper.c: 66:   playing_note = 1;
  1412  0287  01FA               	clrf	_playing_note
  1413  0288  0AFA               	incf	_playing_note,f
  1414                           
  1415                           ;beeper.c: 67:   T1CONbits.TMR1ON = 1;
  1416  0289  1411               	bsf	17,0	;volatile
  1417  028A                     l971:	
  1418                           ;beeper.c: 68:   while (playing_note) { }
  1419                           
  1420  028A  087A               	movf	_playing_note,w
  1421  028B  1903               	btfsc	3,2
  1422  028C  0008               	return
  1423  028D  2A8A               	goto	l971
  1424  028E                     __end_of_beeper_wait_duration:	
  1425                           
  1426                           	psect	text6
  1427  028E                     __ptext6:	
  1428 ;; *************** function ___lwdiv *****************
  1429 ;; Defined at:
  1430 ;;		line 5 in file "C:\Program Files (x86)\Microchip\xc8\v2.05\pic\sources\c90\common\lwdiv.c"
  1431 ;; Parameters:    Size  Location     Type
  1432 ;;  divisor         2    2[COMMON] unsigned int 
  1433 ;;  dividend        2    4[COMMON] unsigned int 
  1434 ;; Auto vars:     Size  Location     Type
  1435 ;;  quotient        2    7[COMMON] unsigned int 
  1436 ;;  counter         1    9[COMMON] unsigned char 
  1437 ;; Return value:  Size  Location     Type
  1438 ;;                  2    2[COMMON] unsigned int 
  1439 ;; Registers used:
  1440 ;;		wreg, status,2, status,0
  1441 ;; Tracked objects:
  1442 ;;		On entry : 0/0
  1443 ;;		On exit  : 0/0
  1444 ;;		Unchanged: 0/0
  1445 ;; Data sizes:     COMMON   BANK0
  1446 ;;      Params:         4       0
  1447 ;;      Locals:         3       0
  1448 ;;      Temps:          1       0
  1449 ;;      Totals:         8       0
  1450 ;;Total ram usage:        8 bytes
  1451 ;; Hardware stack levels used:    1
  1452 ;; Hardware stack levels required when called:    1
  1453 ;; This function calls:
  1454 ;;		Nothing
  1455 ;; This function is called by:
  1456 ;;		_beeper_wait_duration
  1457 ;; This function uses a non-reentrant model
  1458 ;;
  1459                           
  1460                           
  1461                           ;psect for function ___lwdiv
  1462  028E                     ___lwdiv:	
  1463                           
  1464                           ;incstack = 0
  1465                           ; Regs used in ___lwdiv: [wreg+status,2+status,0]
  1466  028E  01F7               	clrf	___lwdiv@quotient
  1467  028F  01F8               	clrf	___lwdiv@quotient+1
  1468  0290  0872               	movf	___lwdiv@divisor,w
  1469  0291  0473               	iorwf	___lwdiv@divisor+1,w
  1470  0292  1903               	btfsc	3,2
  1471  0293  2AC5               	goto	l857
  1472  0294  01F9               	clrf	___lwdiv@counter
  1473  0295  0AF9               	incf	___lwdiv@counter,f
  1474  0296                     l845:	
  1475  0296  1BF3               	btfsc	___lwdiv@divisor+1,7
  1476  0297  2AA4               	goto	l847
  1477  0298  3001               	movlw	1
  1478  0299                     u405:	
  1479  0299  1003               	clrc
  1480  029A  0DF2               	rlf	___lwdiv@divisor,f
  1481  029B  0DF3               	rlf	___lwdiv@divisor+1,f
  1482  029C  3EFF               	addlw	-1
  1483  029D  1D03               	skipz
  1484  029E  2A99               	goto	u405
  1485  029F  3001               	movlw	1
  1486  02A0  00F6               	movwf	??___lwdiv
  1487  02A1  0876               	movf	??___lwdiv,w
  1488  02A2  07F9               	addwf	___lwdiv@counter,f
  1489  02A3  2A96               	goto	l845
  1490  02A4                     l847:	
  1491  02A4  3001               	movlw	1
  1492  02A5                     u425:	
  1493  02A5  1003               	clrc
  1494  02A6  0DF7               	rlf	___lwdiv@quotient,f
  1495  02A7  0DF8               	rlf	___lwdiv@quotient+1,f
  1496  02A8  3EFF               	addlw	-1
  1497  02A9  1D03               	skipz
  1498  02AA  2AA5               	goto	u425
  1499  02AB  0873               	movf	___lwdiv@divisor+1,w
  1500  02AC  0275               	subwf	___lwdiv@dividend+1,w
  1501  02AD  1D03               	skipz
  1502  02AE  2AB1               	goto	u435
  1503  02AF  0872               	movf	___lwdiv@divisor,w
  1504  02B0  0274               	subwf	___lwdiv@dividend,w
  1505  02B1                     u435:	
  1506  02B1  1C03               	skipc
  1507  02B2  2ABA               	goto	l853
  1508  02B3  0872               	movf	___lwdiv@divisor,w
  1509  02B4  02F4               	subwf	___lwdiv@dividend,f
  1510  02B5  0873               	movf	___lwdiv@divisor+1,w
  1511  02B6  1C03               	skipc
  1512  02B7  03F5               	decf	___lwdiv@dividend+1,f
  1513  02B8  02F5               	subwf	___lwdiv@dividend+1,f
  1514  02B9  1477               	bsf	___lwdiv@quotient,0
  1515  02BA                     l853:	
  1516  02BA  3001               	movlw	1
  1517  02BB                     u445:	
  1518  02BB  1003               	clrc
  1519  02BC  0CF3               	rrf	___lwdiv@divisor+1,f
  1520  02BD  0CF2               	rrf	___lwdiv@divisor,f
  1521  02BE  3EFF               	addlw	-1
  1522  02BF  1D03               	skipz
  1523  02C0  2ABB               	goto	u445
  1524  02C1  3001               	movlw	1
  1525  02C2  02F9               	subwf	___lwdiv@counter,f
  1526  02C3  1D03               	btfss	3,2
  1527  02C4  2AA4               	goto	l847
  1528  02C5                     l857:	
  1529  02C5  0878               	movf	___lwdiv@quotient+1,w
  1530  02C6  00F3               	movwf	?___lwdiv+1
  1531  02C7  0877               	movf	___lwdiv@quotient,w
  1532  02C8  00F2               	movwf	?___lwdiv
  1533  02C9  0008               	return
  1534  02CA                     __end_of___lwdiv:	
  1535                           
  1536                           	psect	text7
  1537  02F6                     __ptext7:	
  1538 ;; *************** function _beeper_set_freq_hz *****************
  1539 ;; Defined at:
  1540 ;;		line 79 in file "beeper.c"
  1541 ;; Parameters:    Size  Location     Type
  1542 ;;  freq            2    6[BANK0 ] unsigned int 
  1543 ;; Auto vars:     Size  Location     Type
  1544 ;;		None
  1545 ;; Return value:  Size  Location     Type
  1546 ;;                  1    wreg      void 
  1547 ;; Registers used:
  1548 ;;		wreg, status,2, status,0, pclath, cstack
  1549 ;; Tracked objects:
  1550 ;;		On entry : 0/0
  1551 ;;		On exit  : 0/0
  1552 ;;		Unchanged: 0/0
  1553 ;; Data sizes:     COMMON   BANK0
  1554 ;;      Params:         0       2
  1555 ;;      Locals:         0       0
  1556 ;;      Temps:          0       2
  1557 ;;      Totals:         0       4
  1558 ;;Total ram usage:        4 bytes
  1559 ;; Hardware stack levels used:    1
  1560 ;; Hardware stack levels required when called:    2
  1561 ;; This function calls:
  1562 ;;		___lldiv
  1563 ;;		___wmul
  1564 ;; This function is called by:
  1565 ;;		_beeper_play_tone
  1566 ;; This function uses a non-reentrant model
  1567 ;;
  1568                           
  1569                           
  1570                           ;psect for function _beeper_set_freq_hz
  1571  02F6                     _beeper_set_freq_hz:	
  1572                           
  1573                           ;beeper.c: 80:   freq *= freq_multiplier;
  1574                           
  1575                           ;incstack = 0
  1576                           ; Regs used in _beeper_set_freq_hz: [wreg+status,2+status,0+pclath+cstack]
  1577  02F6  1283               	bcf	3,5	;RP0=0, select bank0
  1578  02F7  1303               	bcf	3,6	;RP1=0, select bank0
  1579  02F8  0852               	movf	_freq_multiplier,w
  1580  02F9  00C8               	movwf	??_beeper_set_freq_hz
  1581  02FA  01C9               	clrf	??_beeper_set_freq_hz+1
  1582  02FB  0848               	movf	??_beeper_set_freq_hz,w
  1583  02FC  00F2               	movwf	___wmul@multiplier
  1584  02FD  0849               	movf	??_beeper_set_freq_hz+1,w
  1585  02FE  00F3               	movwf	___wmul@multiplier+1
  1586  02FF  0847               	movf	beeper_set_freq_hz@freq+1,w
  1587  0300  00F5               	movwf	___wmul@multiplicand+1
  1588  0301  0846               	movf	beeper_set_freq_hz@freq,w
  1589  0302  00F4               	movwf	___wmul@multiplicand
  1590  0303  231F               	fcall	___wmul
  1591  0304  0873               	movf	?___wmul+1,w
  1592  0305  1283               	bcf	3,5	;RP0=0, select bank0
  1593  0306  1303               	bcf	3,6	;RP1=0, select bank0
  1594  0307  00C7               	movwf	beeper_set_freq_hz@freq+1
  1595  0308  0872               	movf	?___wmul,w
  1596  0309  00C6               	movwf	beeper_set_freq_hz@freq
  1597                           
  1598                           ;beeper.c: 82:   PR2 = ((uint32_t)250 / 2 * 1000 / freq) - 2;
  1599  030A  0846               	movf	beeper_set_freq_hz@freq,w
  1600  030B  00F2               	movwf	___lldiv@divisor
  1601  030C  0847               	movf	beeper_set_freq_hz@freq+1,w
  1602  030D  00F3               	movwf	___lldiv@divisor+1
  1603  030E  01F4               	clrf	___lldiv@divisor+2
  1604  030F  01F5               	clrf	___lldiv@divisor+3
  1605  0310  3000               	movlw	0
  1606  0311  00F9               	movwf	___lldiv@dividend+3
  1607  0312  3001               	movlw	1
  1608  0313  00F8               	movwf	___lldiv@dividend+2
  1609  0314  30E8               	movlw	232
  1610  0315  00F7               	movwf	___lldiv@dividend+1
  1611  0316  3048               	movlw	72
  1612  0317  00F6               	movwf	___lldiv@dividend
  1613  0318  21F1               	fcall	___lldiv
  1614  0319  0872               	movf	?___lldiv,w
  1615  031A  3EFE               	addlw	254
  1616  031B  1283               	bcf	3,5	;RP0=0, select bank2
  1617  031C  1703               	bsf	3,6	;RP1=1, select bank2
  1618  031D  0091               	movwf	17	;volatile
  1619  031E  0008               	return
  1620  031F                     __end_of_beeper_set_freq_hz:	
  1621                           
  1622                           	psect	text8
  1623  031F                     __ptext8:	
  1624 ;; *************** function ___wmul *****************
  1625 ;; Defined at:
  1626 ;;		line 15 in file "C:\Program Files (x86)\Microchip\xc8\v2.05\pic\sources\c90\common\Umul16.c"
  1627 ;; Parameters:    Size  Location     Type
  1628 ;;  multiplier      2    2[COMMON] unsigned int 
  1629 ;;  multiplicand    2    4[COMMON] unsigned int 
  1630 ;; Auto vars:     Size  Location     Type
  1631 ;;  product         2    6[COMMON] unsigned int 
  1632 ;; Return value:  Size  Location     Type
  1633 ;;                  2    2[COMMON] unsigned int 
  1634 ;; Registers used:
  1635 ;;		wreg, status,2, status,0
  1636 ;; Tracked objects:
  1637 ;;		On entry : 0/0
  1638 ;;		On exit  : 0/0
  1639 ;;		Unchanged: 0/0
  1640 ;; Data sizes:     COMMON   BANK0
  1641 ;;      Params:         4       0
  1642 ;;      Locals:         2       0
  1643 ;;      Temps:          0       0
  1644 ;;      Totals:         6       0
  1645 ;;Total ram usage:        6 bytes
  1646 ;; Hardware stack levels used:    1
  1647 ;; Hardware stack levels required when called:    1
  1648 ;; This function calls:
  1649 ;;		Nothing
  1650 ;; This function is called by:
  1651 ;;		_beeper_wait_duration
  1652 ;;		_beeper_set_freq_hz
  1653 ;; This function uses a non-reentrant model
  1654 ;;
  1655                           
  1656                           
  1657                           ;psect for function ___wmul
  1658  031F                     ___wmul:	
  1659                           
  1660                           ;incstack = 0
  1661                           ; Regs used in ___wmul: [wreg+status,2+status,0]
  1662  031F  01F6               	clrf	___wmul@product
  1663  0320  01F7               	clrf	___wmul@product+1
  1664  0321                     l799:	
  1665  0321  1C72               	btfss	___wmul@multiplier,0
  1666  0322  2B29               	goto	l115
  1667  0323  0874               	movf	___wmul@multiplicand,w
  1668  0324  07F6               	addwf	___wmul@product,f
  1669  0325  1803               	skipnc
  1670  0326  0AF7               	incf	___wmul@product+1,f
  1671  0327  0875               	movf	___wmul@multiplicand+1,w
  1672  0328  07F7               	addwf	___wmul@product+1,f
  1673  0329                     l115:	
  1674  0329  3001               	movlw	1
  1675  032A                     u295:	
  1676  032A  1003               	clrc
  1677  032B  0DF4               	rlf	___wmul@multiplicand,f
  1678  032C  0DF5               	rlf	___wmul@multiplicand+1,f
  1679  032D  3EFF               	addlw	-1
  1680  032E  1D03               	skipz
  1681  032F  2B2A               	goto	u295
  1682  0330  3001               	movlw	1
  1683  0331                     u305:	
  1684  0331  1003               	clrc
  1685  0332  0CF3               	rrf	___wmul@multiplier+1,f
  1686  0333  0CF2               	rrf	___wmul@multiplier,f
  1687  0334  3EFF               	addlw	-1
  1688  0335  1D03               	skipz
  1689  0336  2B31               	goto	u305
  1690  0337  0872               	movf	___wmul@multiplier,w
  1691  0338  0473               	iorwf	___wmul@multiplier+1,w
  1692  0339  1D03               	btfss	3,2
  1693  033A  2B21               	goto	l799
  1694  033B  0877               	movf	___wmul@product+1,w
  1695  033C  00F3               	movwf	?___wmul+1
  1696  033D  0876               	movf	___wmul@product,w
  1697  033E  00F2               	movwf	?___wmul
  1698  033F  0008               	return
  1699  0340                     __end_of___wmul:	
  1700                           
  1701                           	psect	text9
  1702  01F1                     __ptext9:	
  1703 ;; *************** function ___lldiv *****************
  1704 ;; Defined at:
  1705 ;;		line 5 in file "C:\Program Files (x86)\Microchip\xc8\v2.05\pic\sources\c90\common\__lldiv.c"
  1706 ;; Parameters:    Size  Location     Type
  1707 ;;  divisor         4    2[COMMON] unsigned long 
  1708 ;;  dividend        4    6[COMMON] unsigned long 
  1709 ;; Auto vars:     Size  Location     Type
  1710 ;;  quotient        4    1[BANK0 ] unsigned long 
  1711 ;;  counter         1    5[BANK0 ] unsigned char 
  1712 ;; Return value:  Size  Location     Type
  1713 ;;                  4    2[COMMON] unsigned long 
  1714 ;; Registers used:
  1715 ;;		wreg, status,2, status,0
  1716 ;; Tracked objects:
  1717 ;;		On entry : 0/0
  1718 ;;		On exit  : 0/0
  1719 ;;		Unchanged: 0/0
  1720 ;; Data sizes:     COMMON   BANK0
  1721 ;;      Params:         8       0
  1722 ;;      Locals:         0       5
  1723 ;;      Temps:          0       1
  1724 ;;      Totals:         8       6
  1725 ;;Total ram usage:       14 bytes
  1726 ;; Hardware stack levels used:    1
  1727 ;; Hardware stack levels required when called:    1
  1728 ;; This function calls:
  1729 ;;		Nothing
  1730 ;; This function is called by:
  1731 ;;		_beeper_set_freq_hz
  1732 ;; This function uses a non-reentrant model
  1733 ;;
  1734                           
  1735                           
  1736                           ;psect for function ___lldiv
  1737  01F1                     ___lldiv:	
  1738                           
  1739                           ;incstack = 0
  1740                           ; Regs used in ___lldiv: [wreg+status,2+status,0]
  1741  01F1  3000               	movlw	0
  1742  01F2  1283               	bcf	3,5	;RP0=0, select bank0
  1743  01F3  1303               	bcf	3,6	;RP1=0, select bank0
  1744  01F4  00C4               	movwf	___lldiv@quotient+3
  1745  01F5  3000               	movlw	0
  1746  01F6  00C3               	movwf	___lldiv@quotient+2
  1747  01F7  3000               	movlw	0
  1748  01F8  00C2               	movwf	___lldiv@quotient+1
  1749  01F9  3000               	movlw	0
  1750  01FA  00C1               	movwf	___lldiv@quotient
  1751  01FB  0875               	movf	___lldiv@divisor+3,w
  1752  01FC  0474               	iorwf	___lldiv@divisor+2,w
  1753  01FD  0473               	iorwf	___lldiv@divisor+1,w
  1754  01FE  0472               	iorwf	___lldiv@divisor,w
  1755  01FF  1903               	skipnz
  1756  0200  2A48               	goto	l955
  1757  0201  01C5               	clrf	___lldiv@counter
  1758  0202  0AC5               	incf	___lldiv@counter,f
  1759  0203                     l941:	
  1760  0203  1BF5               	btfsc	___lldiv@divisor+3,7
  1761  0204  2A13               	goto	l943
  1762  0205  3001               	movlw	1
  1763  0206  00C0               	movwf	??___lldiv
  1764  0207                     u515:	
  1765  0207  1003               	clrc
  1766  0208  0DF2               	rlf	___lldiv@divisor,f
  1767  0209  0DF3               	rlf	___lldiv@divisor+1,f
  1768  020A  0DF4               	rlf	___lldiv@divisor+2,f
  1769  020B  0DF5               	rlf	___lldiv@divisor+3,f
  1770  020C  0BC0               	decfsz	??___lldiv,f
  1771  020D  2A07               	goto	u515
  1772  020E  3001               	movlw	1
  1773  020F  00C0               	movwf	??___lldiv
  1774  0210  0840               	movf	??___lldiv,w
  1775  0211  07C5               	addwf	___lldiv@counter,f
  1776  0212  2A03               	goto	l941
  1777  0213                     l943:	
  1778  0213  3001               	movlw	1
  1779  0214  00C0               	movwf	??___lldiv
  1780  0215                     u535:	
  1781  0215  1003               	clrc
  1782  0216  0DC1               	rlf	___lldiv@quotient,f
  1783  0217  0DC2               	rlf	___lldiv@quotient+1,f
  1784  0218  0DC3               	rlf	___lldiv@quotient+2,f
  1785  0219  0DC4               	rlf	___lldiv@quotient+3,f
  1786  021A  0BC0               	decfsz	??___lldiv,f
  1787  021B  2A15               	goto	u535
  1788  021C  0875               	movf	___lldiv@divisor+3,w
  1789  021D  0279               	subwf	___lldiv@dividend+3,w
  1790  021E  1D03               	skipz
  1791  021F  2A2A               	goto	u545
  1792  0220  0874               	movf	___lldiv@divisor+2,w
  1793  0221  0278               	subwf	___lldiv@dividend+2,w
  1794  0222  1D03               	skipz
  1795  0223  2A2A               	goto	u545
  1796  0224  0873               	movf	___lldiv@divisor+1,w
  1797  0225  0277               	subwf	___lldiv@dividend+1,w
  1798  0226  1D03               	skipz
  1799  0227  2A2A               	goto	u545
  1800  0228  0872               	movf	___lldiv@divisor,w
  1801  0229  0276               	subwf	___lldiv@dividend,w
  1802  022A                     u545:	
  1803  022A  1C03               	skipc
  1804  022B  2A3B               	goto	l951
  1805  022C  0872               	movf	___lldiv@divisor,w
  1806  022D  02F6               	subwf	___lldiv@dividend,f
  1807  022E  0873               	movf	___lldiv@divisor+1,w
  1808  022F  1C03               	skipc
  1809  0230  0F73               	incfsz	___lldiv@divisor+1,w
  1810  0231  02F7               	subwf	___lldiv@dividend+1,f
  1811  0232  0874               	movf	___lldiv@divisor+2,w
  1812  0233  1C03               	skipc
  1813  0234  0F74               	incfsz	___lldiv@divisor+2,w
  1814  0235  02F8               	subwf	___lldiv@dividend+2,f
  1815  0236  0875               	movf	___lldiv@divisor+3,w
  1816  0237  1C03               	skipc
  1817  0238  0F75               	incfsz	___lldiv@divisor+3,w
  1818  0239  02F9               	subwf	___lldiv@dividend+3,f
  1819  023A  1441               	bsf	___lldiv@quotient,0
  1820  023B                     l951:	
  1821  023B  3001               	movlw	1
  1822  023C                     u555:	
  1823  023C  1003               	clrc
  1824  023D  0CF5               	rrf	___lldiv@divisor+3,f
  1825  023E  0CF4               	rrf	___lldiv@divisor+2,f
  1826  023F  0CF3               	rrf	___lldiv@divisor+1,f
  1827  0240  0CF2               	rrf	___lldiv@divisor,f
  1828  0241  3EFF               	addlw	-1
  1829  0242  1D03               	skipz
  1830  0243  2A3C               	goto	u555
  1831  0244  3001               	movlw	1
  1832  0245  02C5               	subwf	___lldiv@counter,f
  1833  0246  1D03               	btfss	3,2
  1834  0247  2A13               	goto	l943
  1835  0248                     l955:	
  1836  0248  0844               	movf	___lldiv@quotient+3,w
  1837  0249  00F5               	movwf	?___lldiv+3
  1838  024A  0843               	movf	___lldiv@quotient+2,w
  1839  024B  00F4               	movwf	?___lldiv+2
  1840  024C  0842               	movf	___lldiv@quotient+1,w
  1841  024D  00F3               	movwf	?___lldiv+1
  1842  024E  0841               	movf	___lldiv@quotient,w
  1843  024F  00F2               	movwf	?___lldiv
  1844  0250  0008               	return
  1845  0251                     __end_of___lldiv:	
  1846                           
  1847                           	psect	text10
  1848  0389                     __ptext10:	
  1849 ;; *************** function _beeper_on *****************
  1850 ;; Defined at:
  1851 ;;		line 85 in file "beeper.c"
  1852 ;; Parameters:    Size  Location     Type
  1853 ;;		None
  1854 ;; Auto vars:     Size  Location     Type
  1855 ;;		None
  1856 ;; Return value:  Size  Location     Type
  1857 ;;                  1    wreg      void 
  1858 ;; Registers used:
  1859 ;;		None
  1860 ;; Tracked objects:
  1861 ;;		On entry : 0/0
  1862 ;;		On exit  : 0/0
  1863 ;;		Unchanged: 0/0
  1864 ;; Data sizes:     COMMON   BANK0
  1865 ;;      Params:         0       0
  1866 ;;      Locals:         0       0
  1867 ;;      Temps:          0       0
  1868 ;;      Totals:         0       0
  1869 ;;Total ram usage:        0 bytes
  1870 ;; Hardware stack levels used:    1
  1871 ;; Hardware stack levels required when called:    1
  1872 ;; This function calls:
  1873 ;;		Nothing
  1874 ;; This function is called by:
  1875 ;;		_beeper_play_tone
  1876 ;; This function uses a non-reentrant model
  1877 ;;
  1878                           
  1879                           
  1880                           ;psect for function _beeper_on
  1881  0389                     _beeper_on:	
  1882                           
  1883                           ;beeper.c: 86:   T2CONbits.TMR2ON = 1;
  1884                           
  1885                           ;incstack = 0
  1886                           ; Regs used in _beeper_on: []
  1887  0389  1283               	bcf	3,5	;RP0=0, select bank2
  1888  038A  1703               	bsf	3,6	;RP1=1, select bank2
  1889  038B  1512               	bsf	18,2	;volatile
  1890                           
  1891                           ;beeper.c: 87:   LATAbits.LATA5 = 1;
  1892  038C  1685               	bsf	5,5	;volatile
  1893  038D  0008               	return
  1894  038E                     __end_of_beeper_on:	
  1895                           
  1896                           	psect	text11
  1897  038E                     __ptext11:	
  1898 ;; *************** function _beeper_off *****************
  1899 ;; Defined at:
  1900 ;;		line 90 in file "beeper.c"
  1901 ;; Parameters:    Size  Location     Type
  1902 ;;		None
  1903 ;; Auto vars:     Size  Location     Type
  1904 ;;		None
  1905 ;; Return value:  Size  Location     Type
  1906 ;;                  1    wreg      void 
  1907 ;; Registers used:
  1908 ;;		None
  1909 ;; Tracked objects:
  1910 ;;		On entry : 0/0
  1911 ;;		On exit  : 0/0
  1912 ;;		Unchanged: 0/0
  1913 ;; Data sizes:     COMMON   BANK0
  1914 ;;      Params:         0       0
  1915 ;;      Locals:         0       0
  1916 ;;      Temps:          0       0
  1917 ;;      Totals:         0       0
  1918 ;;Total ram usage:        0 bytes
  1919 ;; Hardware stack levels used:    1
  1920 ;; Hardware stack levels required when called:    1
  1921 ;; This function calls:
  1922 ;;		Nothing
  1923 ;; This function is called by:
  1924 ;;		_beeper_play_tone
  1925 ;; This function uses a non-reentrant model
  1926 ;;
  1927                           
  1928                           
  1929                           ;psect for function _beeper_off
  1930  038E                     _beeper_off:	
  1931                           
  1932                           ;beeper.c: 91:   T2CONbits.TMR2ON = 0;
  1933                           
  1934                           ;incstack = 0
  1935                           ; Regs used in _beeper_off: []
  1936  038E  1283               	bcf	3,5	;RP0=0, select bank2
  1937  038F  1703               	bsf	3,6	;RP1=1, select bank2
  1938  0390  1112               	bcf	18,2	;volatile
  1939                           
  1940                           ;beeper.c: 92:   LATAbits.LATA5 = 0;
  1941  0391  1285               	bcf	5,5	;volatile
  1942  0392  0008               	return
  1943  0393                     __end_of_beeper_off:	
  1944                           
  1945                           	psect	text12
  1946  0371                     __ptext12:	
  1947 ;; *************** function _init *****************
  1948 ;; Defined at:
  1949 ;;		line 31 in file "main.c"
  1950 ;; Parameters:    Size  Location     Type
  1951 ;;		None
  1952 ;; Auto vars:     Size  Location     Type
  1953 ;;		None
  1954 ;; Return value:  Size  Location     Type
  1955 ;;                  1    wreg      void 
  1956 ;; Registers used:
  1957 ;;		wreg, status,2, status,0, pclath, cstack
  1958 ;; Tracked objects:
  1959 ;;		On entry : 0/0
  1960 ;;		On exit  : 0/0
  1961 ;;		Unchanged: 0/0
  1962 ;; Data sizes:     COMMON   BANK0
  1963 ;;      Params:         0       0
  1964 ;;      Locals:         0       0
  1965 ;;      Temps:          0       0
  1966 ;;      Totals:         0       0
  1967 ;;Total ram usage:        0 bytes
  1968 ;; Hardware stack levels used:    1
  1969 ;; Hardware stack levels required when called:    2
  1970 ;; This function calls:
  1971 ;;		_init_beeper
  1972 ;; This function is called by:
  1973 ;;		_main
  1974 ;; This function uses a non-reentrant model
  1975 ;;
  1976                           
  1977                           
  1978                           ;psect for function _init
  1979  0371                     _init:	
  1980                           
  1981                           ;main.c: 32:   OSCCONbits.IRCF = 0b01;
  1982                           
  1983                           ;incstack = 0
  1984                           ; Regs used in _init: [wreg+status,2+status,0+pclath+cstack]
  1985  0371  1683               	bsf	3,5	;RP0=1, select bank1
  1986  0372  1303               	bcf	3,6	;RP1=0, select bank1
  1987  0373  080F               	movf	15,w	;volatile
  1988  0374  39CF               	andlw	-49
  1989  0375  3810               	iorlw	16
  1990  0376  008F               	movwf	15	;volatile
  1991  0377                     l15:	
  1992                           ;main.c: 33:   while (!OSCCONbits.HTS) {}
  1993                           
  1994  0377  1D0F               	btfss	15,2	;volatile
  1995  0378  2B77               	goto	l15
  1996                           
  1997                           ;main.c: 35:   init_beeper();
  1998  0379  22CA               	fcall	_init_beeper
  1999  037A  0008               	return
  2000  037B                     __end_of_init:	
  2001                           
  2002                           	psect	text13
  2003  02CA                     __ptext13:	
  2004 ;; *************** function _init_beeper *****************
  2005 ;; Defined at:
  2006 ;;		line 15 in file "beeper.c"
  2007 ;; Parameters:    Size  Location     Type
  2008 ;;		None
  2009 ;; Auto vars:     Size  Location     Type
  2010 ;;		None
  2011 ;; Return value:  Size  Location     Type
  2012 ;;                  1    wreg      void 
  2013 ;; Registers used:
  2014 ;;		wreg, status,2, status,0
  2015 ;; Tracked objects:
  2016 ;;		On entry : 0/0
  2017 ;;		On exit  : 0/0
  2018 ;;		Unchanged: 0/0
  2019 ;; Data sizes:     COMMON   BANK0
  2020 ;;      Params:         0       0
  2021 ;;      Locals:         0       0
  2022 ;;      Temps:          1       0
  2023 ;;      Totals:         1       0
  2024 ;;Total ram usage:        1 bytes
  2025 ;; Hardware stack levels used:    1
  2026 ;; Hardware stack levels required when called:    1
  2027 ;; This function calls:
  2028 ;;		Nothing
  2029 ;; This function is called by:
  2030 ;;		_init
  2031 ;; This function uses a non-reentrant model
  2032 ;;
  2033                           
  2034                           
  2035                           ;psect for function _init_beeper
  2036  02CA                     _init_beeper:	
  2037                           
  2038                           ;beeper.c: 17:   ANSELA &= ~(0b1 << 2);
  2039                           
  2040                           ;incstack = 0
  2041                           ; Regs used in _init_beeper: [wreg+status,2+status,0]
  2042  02CA  30FB               	movlw	251
  2043  02CB  00F2               	movwf	??_init_beeper
  2044  02CC  0872               	movf	??_init_beeper,w
  2045  02CD  1683               	bsf	3,5	;RP0=1, select bank3
  2046  02CE  1703               	bsf	3,6	;RP1=1, select bank3
  2047  02CF  0585               	andwf	5,f	;volatile
  2048                           
  2049                           ;beeper.c: 18:   TRISA &= ~(0b1 << 2);
  2050  02D0  30FB               	movlw	251
  2051  02D1  00F2               	movwf	??_init_beeper
  2052  02D2  0872               	movf	??_init_beeper,w
  2053  02D3  1683               	bsf	3,5	;RP0=1, select bank1
  2054  02D4  1303               	bcf	3,6	;RP1=0, select bank1
  2055  02D5  0585               	andwf	5,f	;volatile
  2056                           
  2057                           ;beeper.c: 19:   LATA |= (0b1 << 2);
  2058  02D6  1283               	bcf	3,5	;RP0=0, select bank2
  2059  02D7  1703               	bsf	3,6	;RP1=1, select bank2
  2060  02D8  1505               	bsf	5,2	;volatile
  2061                           
  2062                           ;beeper.c: 22:   ANSELAbits.ANSA5 = 0;
  2063  02D9  1683               	bsf	3,5	;RP0=1, select bank3
  2064  02DA  1703               	bsf	3,6	;RP1=1, select bank3
  2065  02DB  1285               	bcf	5,5	;volatile
  2066                           
  2067                           ;beeper.c: 23:   TRISAbits.TRISA5 = 0;
  2068  02DC  1683               	bsf	3,5	;RP0=1, select bank1
  2069  02DD  1303               	bcf	3,6	;RP1=0, select bank1
  2070  02DE  1285               	bcf	5,5	;volatile
  2071                           
  2072                           ;beeper.c: 24:   LATAbits.LATA5 = 0;
  2073  02DF  1283               	bcf	3,5	;RP0=0, select bank2
  2074  02E0  1703               	bsf	3,6	;RP1=1, select bank2
  2075  02E1  1285               	bcf	5,5	;volatile
  2076                           
  2077                           ;beeper.c: 30:   T2CONbits.T2OUTPS = 0b0000;
  2078  02E2  3087               	movlw	-121
  2079  02E3  0592               	andwf	18,f	;volatile
  2080                           
  2081                           ;beeper.c: 31:   T2CONbits.TMR2ON = 0b0;
  2082  02E4  1112               	bcf	18,2	;volatile
  2083                           
  2084                           ;beeper.c: 32:   T2CONbits.T2CKPS = 0b00;
  2085  02E5  30FC               	movlw	-4
  2086  02E6  0592               	andwf	18,f	;volatile
  2087                           
  2088                           ;beeper.c: 34:   PIE1bits.TMR2IE = 0b1;
  2089  02E7  1683               	bsf	3,5	;RP0=1, select bank1
  2090  02E8  1303               	bcf	3,6	;RP1=0, select bank1
  2091  02E9  148C               	bsf	12,1	;volatile
  2092                           
  2093                           ;beeper.c: 38:   T1CONbits.TMR1CS = 0b00;
  2094  02EA  303F               	movlw	-193
  2095  02EB  1283               	bcf	3,5	;RP0=0, select bank0
  2096  02EC  1303               	bcf	3,6	;RP1=0, select bank0
  2097  02ED  0591               	andwf	17,f	;volatile
  2098                           
  2099                           ;beeper.c: 39:   T1CONbits.T1CKPS = 0b11;
  2100  02EE  3030               	movlw	48
  2101  02EF  0491               	iorwf	17,f	;volatile
  2102                           
  2103                           ;beeper.c: 40:   PIE1bits.TMR1IE = 0b1;
  2104  02F0  1683               	bsf	3,5	;RP0=1, select bank1
  2105  02F1  1303               	bcf	3,6	;RP1=0, select bank1
  2106  02F2  140C               	bsf	12,0	;volatile
  2107                           
  2108                           ;beeper.c: 43:   INTCONbits.GIE = 0b1;
  2109  02F3  178B               	bsf	11,7	;volatile
  2110                           
  2111                           ;beeper.c: 44:   INTCONbits.PEIE = 0b1;
  2112  02F4  170B               	bsf	11,6	;volatile
  2113  02F5  0008               	return
  2114  02F6                     __end_of_init_beeper:	
  2115                           
  2116                           	psect	text14
  2117  0340                     __ptext14:	
  2118 ;; *************** function _ISR *****************
  2119 ;; Defined at:
  2120 ;;		line 95 in file "beeper.c"
  2121 ;; Parameters:    Size  Location     Type
  2122 ;;		None
  2123 ;; Auto vars:     Size  Location     Type
  2124 ;;		None
  2125 ;; Return value:  Size  Location     Type
  2126 ;;                  1    wreg      void 
  2127 ;; Registers used:
  2128 ;;		status,2, status,0
  2129 ;; Tracked objects:
  2130 ;;		On entry : 0/0
  2131 ;;		On exit  : 0/0
  2132 ;;		Unchanged: 0/0
  2133 ;; Data sizes:     COMMON   BANK0
  2134 ;;      Params:         0       0
  2135 ;;      Locals:         0       0
  2136 ;;      Temps:          2       0
  2137 ;;      Totals:         2       0
  2138 ;;Total ram usage:        2 bytes
  2139 ;; Hardware stack levels used:    1
  2140 ;; This function calls:
  2141 ;;		Nothing
  2142 ;; This function is called by:
  2143 ;;		Interrupt level 1
  2144 ;; This function uses a non-reentrant model
  2145 ;;
  2146                           
  2147                           
  2148                           ;psect for function _ISR
  2149  0340                     _ISR:	
  2150                           
  2151                           ;beeper.c: 96:   if (PIR1bits.TMR2IF) {
  2152  0340  1283               	bcf	3,5	;RP0=0, select bank0
  2153  0341  1303               	bcf	3,6	;RP1=0, select bank0
  2154  0342  1C8C               	btfss	12,1	;volatile
  2155  0343  2B53               	goto	i1l789
  2156                           
  2157                           ;beeper.c: 98:     PIR1bits.TMR2IF = 0;
  2158  0344  108C               	bcf	12,1	;volatile
  2159                           
  2160                           ;beeper.c: 99:     LATAbits.LATA2 = ~LATAbits.LATA2;
  2161  0345  1003               	clrc
  2162  0346  1283               	bcf	3,5	;RP0=0, select bank2
  2163  0347  1703               	bsf	3,6	;RP1=1, select bank2
  2164  0348  1D05               	btfss	5,2	;volatile
  2165  0349  1403               	setc
  2166  034A  1C03               	btfss	3,0
  2167  034B  2B50               	goto	u25_20
  2168  034C  1283               	bcf	3,5	;RP0=0, select bank2
  2169  034D  1703               	bsf	3,6	;RP1=1, select bank2
  2170  034E  1505               	bsf	5,2	;volatile
  2171  034F  2B53               	goto	i1l789
  2172  0350                     u25_20:	
  2173  0350  1283               	bcf	3,5	;RP0=0, select bank2
  2174  0351  1703               	bsf	3,6	;RP1=1, select bank2
  2175  0352  1105               	bcf	5,2	;volatile
  2176  0353                     i1l789:	
  2177                           
  2178                           ;beeper.c: 102:   if (PIR1bits.TMR1IF) {
  2179  0353  1303               	bcf	3,6	;RP1=0, select bank0
  2180  0354  1C0C               	btfss	12,0	;volatile
  2181  0355  2B59               	goto	i1l111
  2182                           
  2183                           ;beeper.c: 104:     PIR1bits.TMR1IF = 0;
  2184  0356  100C               	bcf	12,0	;volatile
  2185                           
  2186                           ;beeper.c: 105:     playing_note = 0;
  2187  0357  01FA               	clrf	_playing_note
  2188                           
  2189                           ;beeper.c: 106:     T1CONbits.TMR1ON = 0;
  2190  0358  1011               	bcf	17,0	;volatile
  2191  0359                     i1l111:	
  2192  0359  0871               	movf	??_ISR+1,w
  2193  035A  008A               	movwf	10
  2194  035B  0E70               	swapf	??_ISR^(0+4294967168),w
  2195  035C  0083               	movwf	3
  2196  035D  0EFE               	swapf	126,f
  2197  035E  0E7E               	swapf	126,w
  2198  035F  0009               	retfie
  2199  0360                     __end_of_ISR:	
  2200  007E                     btemp	set	126	;btemp
  2201  007E                     wtemp0	set	126
  2202                           
  2203                           	psect	intentry
  2204  0004                     __pintentry:	
  2205                           ;incstack = 0
  2206                           ; Regs used in _ISR: [status]
  2207                           
  2208  0004                     interrupt_function:	
  2209  007E                     saved_w	set	btemp
  2210  0004  00FE               	movwf	btemp
  2211  0005  0E03               	swapf	3,w
  2212  0006  00F0               	movwf	??_ISR
  2213  0007  080A               	movf	10,w
  2214  0008  00F1               	movwf	??_ISR+1
  2215  0009  2B40               	ljmp	_ISR


Data Sizes:
    Strings     0
    Constant    0
    Data        2
    BSS         1
    Persistent  0
    Stack       0

Auto Spaces:
    Space          Size  Autos    Used
    COMMON           14     10      12
    BANK0            48     18      19

Pointer List with Targets:

    None.

Critical Paths under _main in COMMON

    _beeper_wait_duration->___lwdiv
    _beeper_set_freq_hz->___lldiv
    _init->_init_beeper

Critical Paths under _ISR in COMMON

    None.

Critical Paths under _main in BANK0

    _main->_loop
    _loop->_beeper_play_tone
    _beeper_play_tone->_beeper_set_freq_hz
    _beeper_set_freq_hz->___lldiv

Critical Paths under _ISR in BANK0

    None.

Call Graph Tables:

 ---------------------------------------------------------------------------------
 (Depth) Function   	        Calls       Base Space   Used Autos Params    Refs
 ---------------------------------------------------------------------------------
 (0) _main                                                 0     0      0   10590
                               _init
                               _loop
 ---------------------------------------------------------------------------------
 (1) _loop                                                 4     4      0   10590
                                             14 BANK0      4     4      0
                   _beeper_play_tone
        _beeper_set_duration_divisor
         _beeper_set_freq_multiplier
               _beeper_wait_duration
 ---------------------------------------------------------------------------------
 (2) _beeper_set_freq_multiplier                           2     2      0      22
                                              2 COMMON     2     2      0
 ---------------------------------------------------------------------------------
 (2) _beeper_set_duration_divisor                          2     2      0      22
                                              2 COMMON     2     2      0
 ---------------------------------------------------------------------------------
 (2) _beeper_play_tone                                     4     0      4    9108
                                             10 BANK0      4     0      4
                         _beeper_off
                          _beeper_on
                 _beeper_set_freq_hz
               _beeper_wait_duration
 ---------------------------------------------------------------------------------
 (2) _beeper_wait_duration                                 6     4      2    1234
                                              0 BANK0      6     4      2
                            ___lwdiv
                             ___wmul
 ---------------------------------------------------------------------------------
 (3) ___lwdiv                                              8     4      4     314
                                              2 COMMON     8     4      4
 ---------------------------------------------------------------------------------
 (3) _beeper_set_freq_hz                                   4     2      2     972
                                              6 BANK0      4     2      2
                            ___lldiv
                             ___wmul
 ---------------------------------------------------------------------------------
 (3) ___wmul                                               6     2      4     396
                                              2 COMMON     6     2      4
 ---------------------------------------------------------------------------------
 (4) ___lldiv                                             14     6      8     421
                                              2 COMMON     8     0      8
                                              0 BANK0      6     6      0
 ---------------------------------------------------------------------------------
 (3) _beeper_on                                            0     0      0       0
 ---------------------------------------------------------------------------------
 (3) _beeper_off                                           0     0      0       0
 ---------------------------------------------------------------------------------
 (1) _init                                                 0     0      0       0
                        _init_beeper
 ---------------------------------------------------------------------------------
 (2) _init_beeper                                          1     1      0       0
                                              2 COMMON     1     1      0
 ---------------------------------------------------------------------------------
 Estimated maximum stack depth 4
 ---------------------------------------------------------------------------------
 (Depth) Function   	        Calls       Base Space   Used Autos Params    Refs
 ---------------------------------------------------------------------------------
 (5) _ISR                                                  2     2      0       0
                                              0 COMMON     2     2      0
 ---------------------------------------------------------------------------------
 Estimated maximum stack depth 5
 ---------------------------------------------------------------------------------

 Call Graph Graphs:

 _main (ROOT)
   _init
     _init_beeper
   _loop
     _beeper_play_tone
       _beeper_off
       _beeper_on
       _beeper_set_freq_hz
         ___lldiv
         ___wmul
       _beeper_wait_duration
         ___lwdiv
         ___wmul
     _beeper_set_duration_divisor
     _beeper_set_freq_multiplier
     _beeper_wait_duration
       ___lwdiv
       ___wmul

 _ISR (ROOT)

 Address spaces:
Name               Size   Autos  Total    Cost      Usage
SFR3                 0      0       0       4        0.0%
BITSFR3              0      0       0       4        0.0%
SFR2                 0      0       0       5        0.0%
BITSFR2              0      0       0       5        0.0%
SFR1                 0      0       0       2        0.0%
BITSFR1              0      0       0       2        0.0%
BANK0               30     12      13       6       39.6%
BITBANK0            30      0       0       5        0.0%
SFR0                 0      0       0       1        0.0%
BITSFR0              0      0       0       1        0.0%
COMMON               E      A       C       1       85.7%
BITCOMMON            E      0       0       0        0.0%
CODE                 0      0       0       0        0.0%
DATA                 0      0      1F       4        0.0%
ABS                  0      0      1F       3        0.0%
NULL                 0      0       0       0        0.0%
STACK                0      0       0       2        0.0%


Microchip Technology PIC Macro Assembler V2.05 build -831301201 
Symbol Table                                                                                   Mon Aug 05 02:19:27 2019

                                   __CFG_CP$OFF 0000                                              l15 0377  
                                            l32 0394                             ___wmul@multiplicand 0074  
                                           l115 0329                                             l941 0203  
                                           l853 02BA                                             l845 0296  
                                           l951 023B                                             l943 0213  
                                           l847 02A4                                             l857 02C5  
                                           l955 0248                                             l971 028A  
                                           l799 0321                                             l989 0019  
                                           u305 0331                                             u405 0299  
                                           _PR2 0111                                             u425 02A5  
                                           u515 0207                                             u435 02B1  
                                           _ISR 0340                                             u445 02BB  
                                           u535 0215                                             u295 032A  
                                           u545 022A                                             u555 023C  
                                          ?_ISR 0070                                            l1003 00B8  
                                          l1017 01E1                                            _LATA 0105  
                                  __CFG_WRT$OFF 0000                                            _main 0393  
                                          _init 0371                                            _loop 0012  
                                          btemp 007E                                            start 000A  
                                 __CFG_MCLRE$ON 0000                                           ??_ISR 0070  
                                         ?_main 0070                                           ?_init 0070  
                                  ?_init_beeper 0070                                           ?_loop 0070  
                                 __CFG_WDTE$OFF 0000                                 __end_of___lldiv 0251  
                               __end_of___lwdiv 02CA                                           i1l111 0359  
                                         i1l789 0353                                           u25_20 0350  
                                         _TMR1H 0010                                           _TMR1L 000F  
                                         _TRISA 0085                                  __CFG_BOREN$DIS 0000  
                                         pclath 000A                                           loop@i 004F  
                                         status 0003                                           wtemp0 007E  
                                __CFG_FOSC0$INT 0000                                 __initialization 000B  
                                  __end_of_main 0396                                    __end_of_init 037B  
                                  __end_of_loop 01F1                                          ??_main 007A  
                                        ??_init 0073                                          ??_loop 004E  
                  __end_of_beeper_wait_duration 028E                                          _ANSELA 0185  
                      beeper_play_tone@duration 004C                                  __CFG_PWRTE$OFF 0000  
                   __size_of_beeper_set_freq_hz 0029             __end_of_beeper_set_duration_divisor 0389  
                   _beeper_set_duration_divisor 0383                               ?_beeper_play_tone 004A  
                                        ___wmul 031F                                       ??___lldiv 0040  
                                     ??___lwdiv 0076                              ??_beeper_play_tone 007A  
                 ??_beeper_set_duration_divisor 0072                                    __pdataCOMMON 007B  
                                        saved_w 007E                          beeper_set_freq_hz@freq 0046  
                       __end_of__initialization 0010                                  __pcstackCOMMON 0070  
                                  __pidataBANK0 0397                              __size_of_beeper_on 0005  
                          __size_of_init_beeper 002C                                      _beeper_off 038E  
      beeper_wait_duration@note_dur_clock_ticks 0044                                _duration_divisor 007B  
                          _beeper_wait_duration 0251                                      __pmaintext 0393  
                                       ?___wmul 0072                                      __pintentry 0004  
                             __end_of_beeper_on 038E                           ?_beeper_wait_duration 0040  
                                       ___lldiv 01F1                                 __size_of___wmul 0021  
                                       ___lwdiv 028E                                         __ptext1 0012  
                                       __ptext2 037B                                         __ptext3 0383  
                                       __ptext4 0360                                         __ptext5 0251  
                                       __ptext6 028E                                         __ptext7 02F6  
                                       __ptext8 031F                                         __ptext9 01F1  
                                  __size_of_ISR 0020                                       _T1CONbits 0011  
                                     _T2CONbits 0112                                     ?_beeper_off 0070  
                          end_of_initialization 0010                                 ___lldiv@divisor 0072  
                               ___lldiv@counter 0045             __size_of_beeper_set_freq_multiplier 0008  
                     __size_of_beeper_play_tone 0011                                       _TRISAbits 0085  
                    __end_of_beeper_set_freq_hz 031F                          ??_beeper_wait_duration 0042  
                           __size_of_beeper_off 0005                                  __end_of___wmul 0340  
                                 __pidataCOMMON 0396                             start_initialization 000B  
                                   __end_of_ISR 0360                                        ??___wmul 0076  
                                   __pdataBANK0 0052  beeper_set_duration_divisor@duration_divisor_in 0073  
                                 ??_init_beeper 0072              __end_of_beeper_set_freq_multiplier 0383  
                    _beeper_set_freq_multiplier 037B                                     __pbssCOMMON 007A  
                                     ___latbits 0000                                   __pcstackBANK0 0040  
                  beeper_wait_duration@duration 0040                                       _beeper_on 0389  
                              ___lwdiv@dividend 0074                                        ?___lldiv 0072  
                                      ?___lwdiv 0072                                 _freq_multiplier 0052  
                              _beeper_play_tone 0360                             __end_of_init_beeper 02F6  
                              ___lwdiv@quotient 0077                                    ??_beeper_off 0072  
                             interrupt_function 0004                                  ___wmul@product 0076  
                                    ?_beeper_on 0070                                        _LATAbits 0105  
                                      _PIE1bits 008C                                        _PIR1bits 000C  
                  ?_beeper_set_duration_divisor 0070                              __end_of_beeper_off 0393  
                             ___wmul@multiplier 0072                              _beeper_set_freq_hz 02F6  
                              __size_of___lldiv 0060                                __size_of___lwdiv 003C  
  beeper_set_freq_multiplier@freq_multiplier_in 0073                                     _init_beeper 02CA  
                                    _ANSELAbits 0185                             ?_beeper_set_freq_hz 0046  
                                  _playing_note 007A                                 ___lwdiv@divisor 0072  
                  ??_beeper_set_freq_multiplier 0072                                 ___lwdiv@counter 0079  
                                      __ptext10 0389                                        __ptext11 038E  
                                      __ptext12 0371                                        __ptext13 02CA  
                                      __ptext14 0340                                     ??_beeper_on 0072  
                                 __size_of_main 0003                                   __size_of_init 000A  
                                 __size_of_loop 01DF                            ??_beeper_set_freq_hz 0048  
                 __size_of_beeper_wait_duration 003D                            beeper_play_tone@freq 004A  
                   ?_beeper_set_freq_multiplier 0070                                      _INTCONbits 000B  
          __size_of_beeper_set_duration_divisor 0006                                        loop@i_80 0051  
                                      loop@i_79 0050                                        intlevel1 0000  
                              ___lldiv@dividend 0076                               __CFG_CLKOUTEN$OFF 0000  
                                    _OSCCONbits 008F                        __end_of_beeper_play_tone 0371  
                              ___lldiv@quotient 0041  
